
Assignment2:     file format elf64-x86-64


Disassembly of section .init:

0000000000401358 <_init>:
  401358:	48 83 ec 08          	sub    $0x8,%rsp
  40135c:	48 8b 05 95 5c 20 00 	mov    0x205c95(%rip),%rax        # 606ff8 <_DYNAMIC+0x1f0>
  401363:	48 85 c0             	test   %rax,%rax
  401366:	74 05                	je     40136d <_init+0x15>
  401368:	e8 53 00 00 00       	callq  4013c0 <__gmon_start__@plt>
  40136d:	48 83 c4 08          	add    $0x8,%rsp
  401371:	c3                   	retq   

Disassembly of section .plt:

0000000000401380 <_ZSt20__throw_length_errorPKc@plt-0x10>:
  401380:	ff 35 82 5c 20 00    	pushq  0x205c82(%rip)        # 607008 <_GLOBAL_OFFSET_TABLE_+0x8>
  401386:	ff 25 84 5c 20 00    	jmpq   *0x205c84(%rip)        # 607010 <_GLOBAL_OFFSET_TABLE_+0x10>
  40138c:	0f 1f 40 00          	nopl   0x0(%rax)

0000000000401390 <_ZSt20__throw_length_errorPKc@plt>:
  401390:	ff 25 82 5c 20 00    	jmpq   *0x205c82(%rip)        # 607018 <_GLOBAL_OFFSET_TABLE_+0x18>
  401396:	68 00 00 00 00       	pushq  $0x0
  40139b:	e9 e0 ff ff ff       	jmpq   401380 <_init+0x28>

00000000004013a0 <_ZNSt14basic_ifstreamIcSt11char_traitsIcEE5closeEv@plt>:
  4013a0:	ff 25 7a 5c 20 00    	jmpq   *0x205c7a(%rip)        # 607020 <_GLOBAL_OFFSET_TABLE_+0x20>
  4013a6:	68 01 00 00 00       	pushq  $0x1
  4013ab:	e9 d0 ff ff ff       	jmpq   401380 <_init+0x28>

00000000004013b0 <memset@plt>:
  4013b0:	ff 25 72 5c 20 00    	jmpq   *0x205c72(%rip)        # 607028 <_GLOBAL_OFFSET_TABLE_+0x28>
  4013b6:	68 02 00 00 00       	pushq  $0x2
  4013bb:	e9 c0 ff ff ff       	jmpq   401380 <_init+0x28>

00000000004013c0 <__gmon_start__@plt>:
  4013c0:	ff 25 6a 5c 20 00    	jmpq   *0x205c6a(%rip)        # 607030 <_GLOBAL_OFFSET_TABLE_+0x30>
  4013c6:	68 03 00 00 00       	pushq  $0x3
  4013cb:	e9 b0 ff ff ff       	jmpq   401380 <_init+0x28>

00000000004013d0 <puts@plt>:
  4013d0:	ff 25 62 5c 20 00    	jmpq   *0x205c62(%rip)        # 607038 <_GLOBAL_OFFSET_TABLE_+0x38>
  4013d6:	68 04 00 00 00       	pushq  $0x4
  4013db:	e9 a0 ff ff ff       	jmpq   401380 <_init+0x28>

00000000004013e0 <_ZNKSs5c_strEv@plt>:
  4013e0:	ff 25 5a 5c 20 00    	jmpq   *0x205c5a(%rip)        # 607040 <_GLOBAL_OFFSET_TABLE_+0x40>
  4013e6:	68 05 00 00 00       	pushq  $0x5
  4013eb:	e9 90 ff ff ff       	jmpq   401380 <_init+0x28>

00000000004013f0 <fseek@plt>:
  4013f0:	ff 25 52 5c 20 00    	jmpq   *0x205c52(%rip)        # 607048 <_GLOBAL_OFFSET_TABLE_+0x48>
  4013f6:	68 06 00 00 00       	pushq  $0x6
  4013fb:	e9 80 ff ff ff       	jmpq   401380 <_init+0x28>

0000000000401400 <_ZdlPv@plt>:
  401400:	ff 25 4a 5c 20 00    	jmpq   *0x205c4a(%rip)        # 607050 <_GLOBAL_OFFSET_TABLE_+0x50>
  401406:	68 07 00 00 00       	pushq  $0x7
  40140b:	e9 70 ff ff ff       	jmpq   401380 <_init+0x28>

0000000000401410 <__cxa_rethrow@plt>:
  401410:	ff 25 42 5c 20 00    	jmpq   *0x205c42(%rip)        # 607058 <_GLOBAL_OFFSET_TABLE_+0x58>
  401416:	68 08 00 00 00       	pushq  $0x8
  40141b:	e9 60 ff ff ff       	jmpq   401380 <_init+0x28>

0000000000401420 <_ZNSt8ios_base4InitC1Ev@plt>:
  401420:	ff 25 3a 5c 20 00    	jmpq   *0x205c3a(%rip)        # 607060 <_GLOBAL_OFFSET_TABLE_+0x60>
  401426:	68 09 00 00 00       	pushq  $0x9
  40142b:	e9 50 ff ff ff       	jmpq   401380 <_init+0x28>

0000000000401430 <malloc@plt>:
  401430:	ff 25 32 5c 20 00    	jmpq   *0x205c32(%rip)        # 607068 <_GLOBAL_OFFSET_TABLE_+0x68>
  401436:	68 0a 00 00 00       	pushq  $0xa
  40143b:	e9 40 ff ff ff       	jmpq   401380 <_init+0x28>

0000000000401440 <fopen@plt>:
  401440:	ff 25 2a 5c 20 00    	jmpq   *0x205c2a(%rip)        # 607070 <_GLOBAL_OFFSET_TABLE_+0x70>
  401446:	68 0b 00 00 00       	pushq  $0xb
  40144b:	e9 30 ff ff ff       	jmpq   401380 <_init+0x28>

0000000000401450 <__libc_start_main@plt>:
  401450:	ff 25 22 5c 20 00    	jmpq   *0x205c22(%rip)        # 607078 <_GLOBAL_OFFSET_TABLE_+0x78>
  401456:	68 0c 00 00 00       	pushq  $0xc
  40145b:	e9 20 ff ff ff       	jmpq   401380 <_init+0x28>

0000000000401460 <_ZNSsC1ERKSs@plt>:
  401460:	ff 25 1a 5c 20 00    	jmpq   *0x205c1a(%rip)        # 607080 <_GLOBAL_OFFSET_TABLE_+0x80>
  401466:	68 0d 00 00 00       	pushq  $0xd
  40146b:	e9 10 ff ff ff       	jmpq   401380 <_init+0x28>

0000000000401470 <__cxa_atexit@plt>:
  401470:	ff 25 12 5c 20 00    	jmpq   *0x205c12(%rip)        # 607088 <_GLOBAL_OFFSET_TABLE_+0x88>
  401476:	68 0e 00 00 00       	pushq  $0xe
  40147b:	e9 00 ff ff ff       	jmpq   401380 <_init+0x28>

0000000000401480 <_ZNSt8ios_base4InitD1Ev@plt>:
  401480:	ff 25 0a 5c 20 00    	jmpq   *0x205c0a(%rip)        # 607090 <_GLOBAL_OFFSET_TABLE_+0x90>
  401486:	68 0f 00 00 00       	pushq  $0xf
  40148b:	e9 f0 fe ff ff       	jmpq   401380 <_init+0x28>

0000000000401490 <_ZStlsISt11char_traitsIcEERSt13basic_ostreamIcT_ES5_PKc@plt>:
  401490:	ff 25 02 5c 20 00    	jmpq   *0x205c02(%rip)        # 607098 <_GLOBAL_OFFSET_TABLE_+0x98>
  401496:	68 10 00 00 00       	pushq  $0x10
  40149b:	e9 e0 fe ff ff       	jmpq   401380 <_init+0x28>

00000000004014a0 <_ZStrsIcSt11char_traitsIcESaIcEERSt13basic_istreamIT_T0_ES7_RSbIS4_S5_T1_E@plt>:
  4014a0:	ff 25 fa 5b 20 00    	jmpq   *0x205bfa(%rip)        # 6070a0 <_GLOBAL_OFFSET_TABLE_+0xa0>
  4014a6:	68 11 00 00 00       	pushq  $0x11
  4014ab:	e9 d0 fe ff ff       	jmpq   401380 <_init+0x28>

00000000004014b0 <_ZNSsD1Ev@plt>:
  4014b0:	ff 25 f2 5b 20 00    	jmpq   *0x205bf2(%rip)        # 6070a8 <_GLOBAL_OFFSET_TABLE_+0xa8>
  4014b6:	68 12 00 00 00       	pushq  $0x12
  4014bb:	e9 c0 fe ff ff       	jmpq   401380 <_init+0x28>

00000000004014c0 <free@plt>:
  4014c0:	ff 25 ea 5b 20 00    	jmpq   *0x205bea(%rip)        # 6070b0 <_GLOBAL_OFFSET_TABLE_+0xb0>
  4014c6:	68 13 00 00 00       	pushq  $0x13
  4014cb:	e9 b0 fe ff ff       	jmpq   401380 <_init+0x28>

00000000004014d0 <strlen@plt>:
  4014d0:	ff 25 e2 5b 20 00    	jmpq   *0x205be2(%rip)        # 6070b8 <_GLOBAL_OFFSET_TABLE_+0xb8>
  4014d6:	68 14 00 00 00       	pushq  $0x14
  4014db:	e9 a0 fe ff ff       	jmpq   401380 <_init+0x28>

00000000004014e0 <_ZNKSs7compareEPKc@plt>:
  4014e0:	ff 25 da 5b 20 00    	jmpq   *0x205bda(%rip)        # 6070c0 <_GLOBAL_OFFSET_TABLE_+0xc0>
  4014e6:	68 15 00 00 00       	pushq  $0x15
  4014eb:	e9 90 fe ff ff       	jmpq   401380 <_init+0x28>

00000000004014f0 <_ZNSsC1EPKcRKSaIcE@plt>:
  4014f0:	ff 25 d2 5b 20 00    	jmpq   *0x205bd2(%rip)        # 6070c8 <_GLOBAL_OFFSET_TABLE_+0xc8>
  4014f6:	68 16 00 00 00       	pushq  $0x16
  4014fb:	e9 80 fe ff ff       	jmpq   401380 <_init+0x28>

0000000000401500 <_ZNSt14basic_ifstreamIcSt11char_traitsIcEED1Ev@plt>:
  401500:	ff 25 ca 5b 20 00    	jmpq   *0x205bca(%rip)        # 6070d0 <_GLOBAL_OFFSET_TABLE_+0xd0>
  401506:	68 17 00 00 00       	pushq  $0x17
  40150b:	e9 70 fe ff ff       	jmpq   401380 <_init+0x28>

0000000000401510 <_ZNSt14basic_ofstreamIcSt11char_traitsIcEED1Ev@plt>:
  401510:	ff 25 c2 5b 20 00    	jmpq   *0x205bc2(%rip)        # 6070d8 <_GLOBAL_OFFSET_TABLE_+0xd8>
  401516:	68 18 00 00 00       	pushq  $0x18
  40151b:	e9 60 fe ff ff       	jmpq   401380 <_init+0x28>

0000000000401520 <_ZNKSt9basic_iosIcSt11char_traitsIcEE3eofEv@plt>:
  401520:	ff 25 ba 5b 20 00    	jmpq   *0x205bba(%rip)        # 6070e0 <_GLOBAL_OFFSET_TABLE_+0xe0>
  401526:	68 19 00 00 00       	pushq  $0x19
  40152b:	e9 50 fe ff ff       	jmpq   401380 <_init+0x28>

0000000000401530 <_ZNSolsEj@plt>:
  401530:	ff 25 b2 5b 20 00    	jmpq   *0x205bb2(%rip)        # 6070e8 <_GLOBAL_OFFSET_TABLE_+0xe8>
  401536:	68 1a 00 00 00       	pushq  $0x1a
  40153b:	e9 40 fe ff ff       	jmpq   401380 <_init+0x28>

0000000000401540 <_ZNSt14basic_ofstreamIcSt11char_traitsIcEE5closeEv@plt>:
  401540:	ff 25 aa 5b 20 00    	jmpq   *0x205baa(%rip)        # 6070f0 <_GLOBAL_OFFSET_TABLE_+0xf0>
  401546:	68 1b 00 00 00       	pushq  $0x1b
  40154b:	e9 30 fe ff ff       	jmpq   401380 <_init+0x28>

0000000000401550 <memmove@plt>:
  401550:	ff 25 a2 5b 20 00    	jmpq   *0x205ba2(%rip)        # 6070f8 <_GLOBAL_OFFSET_TABLE_+0xf8>
  401556:	68 1c 00 00 00       	pushq  $0x1c
  40155b:	e9 20 fe ff ff       	jmpq   401380 <_init+0x28>

0000000000401560 <fread@plt>:
  401560:	ff 25 9a 5b 20 00    	jmpq   *0x205b9a(%rip)        # 607100 <_GLOBAL_OFFSET_TABLE_+0x100>
  401566:	68 1d 00 00 00       	pushq  $0x1d
  40156b:	e9 10 fe ff ff       	jmpq   401380 <_init+0x28>

0000000000401570 <__stack_chk_fail@plt>:
  401570:	ff 25 92 5b 20 00    	jmpq   *0x205b92(%rip)        # 607108 <_GLOBAL_OFFSET_TABLE_+0x108>
  401576:	68 1e 00 00 00       	pushq  $0x1e
  40157b:	e9 00 fe ff ff       	jmpq   401380 <_init+0x28>

0000000000401580 <_ZNSaIcED1Ev@plt>:
  401580:	ff 25 8a 5b 20 00    	jmpq   *0x205b8a(%rip)        # 607110 <_GLOBAL_OFFSET_TABLE_+0x110>
  401586:	68 1f 00 00 00       	pushq  $0x1f
  40158b:	e9 f0 fd ff ff       	jmpq   401380 <_init+0x28>

0000000000401590 <strcpy@plt>:
  401590:	ff 25 82 5b 20 00    	jmpq   *0x205b82(%rip)        # 607118 <_GLOBAL_OFFSET_TABLE_+0x118>
  401596:	68 20 00 00 00       	pushq  $0x20
  40159b:	e9 e0 fd ff ff       	jmpq   401380 <_init+0x28>

00000000004015a0 <_ZNSs6appendEPKc@plt>:
  4015a0:	ff 25 7a 5b 20 00    	jmpq   *0x205b7a(%rip)        # 607120 <_GLOBAL_OFFSET_TABLE_+0x120>
  4015a6:	68 21 00 00 00       	pushq  $0x21
  4015ab:	e9 d0 fd ff ff       	jmpq   401380 <_init+0x28>

00000000004015b0 <_ZNSt14basic_ifstreamIcSt11char_traitsIcEEC1EPKcSt13_Ios_Openmode@plt>:
  4015b0:	ff 25 72 5b 20 00    	jmpq   *0x205b72(%rip)        # 607128 <_GLOBAL_OFFSET_TABLE_+0x128>
  4015b6:	68 22 00 00 00       	pushq  $0x22
  4015bb:	e9 c0 fd ff ff       	jmpq   401380 <_init+0x28>

00000000004015c0 <_ZNSolsEPFRSoS_E@plt>:
  4015c0:	ff 25 6a 5b 20 00    	jmpq   *0x205b6a(%rip)        # 607130 <_GLOBAL_OFFSET_TABLE_+0x130>
  4015c6:	68 23 00 00 00       	pushq  $0x23
  4015cb:	e9 b0 fd ff ff       	jmpq   401380 <_init+0x28>

00000000004015d0 <_ZNSt14basic_ofstreamIcSt11char_traitsIcEEC1EPKcSt13_Ios_Openmode@plt>:
  4015d0:	ff 25 62 5b 20 00    	jmpq   *0x205b62(%rip)        # 607138 <_GLOBAL_OFFSET_TABLE_+0x138>
  4015d6:	68 24 00 00 00       	pushq  $0x24
  4015db:	e9 a0 fd ff ff       	jmpq   401380 <_init+0x28>

00000000004015e0 <__cxa_end_catch@plt>:
  4015e0:	ff 25 5a 5b 20 00    	jmpq   *0x205b5a(%rip)        # 607140 <_GLOBAL_OFFSET_TABLE_+0x140>
  4015e6:	68 25 00 00 00       	pushq  $0x25
  4015eb:	e9 90 fd ff ff       	jmpq   401380 <_init+0x28>

00000000004015f0 <_ZSt17__throw_bad_allocv@plt>:
  4015f0:	ff 25 52 5b 20 00    	jmpq   *0x205b52(%rip)        # 607148 <_GLOBAL_OFFSET_TABLE_+0x148>
  4015f6:	68 26 00 00 00       	pushq  $0x26
  4015fb:	e9 80 fd ff ff       	jmpq   401380 <_init+0x28>

0000000000401600 <_ZSt4endlIcSt11char_traitsIcEERSt13basic_ostreamIT_T0_ES6_@plt>:
  401600:	ff 25 4a 5b 20 00    	jmpq   *0x205b4a(%rip)        # 607150 <_GLOBAL_OFFSET_TABLE_+0x150>
  401606:	68 27 00 00 00       	pushq  $0x27
  40160b:	e9 70 fd ff ff       	jmpq   401380 <_init+0x28>

0000000000401610 <__cxa_begin_catch@plt>:
  401610:	ff 25 42 5b 20 00    	jmpq   *0x205b42(%rip)        # 607158 <_GLOBAL_OFFSET_TABLE_+0x158>
  401616:	68 28 00 00 00       	pushq  $0x28
  40161b:	e9 60 fd ff ff       	jmpq   401380 <_init+0x28>

0000000000401620 <fwrite@plt>:
  401620:	ff 25 3a 5b 20 00    	jmpq   *0x205b3a(%rip)        # 607160 <_GLOBAL_OFFSET_TABLE_+0x160>
  401626:	68 29 00 00 00       	pushq  $0x29
  40162b:	e9 50 fd ff ff       	jmpq   401380 <_init+0x28>

0000000000401630 <_ZNSaIcEC1Ev@plt>:
  401630:	ff 25 32 5b 20 00    	jmpq   *0x205b32(%rip)        # 607168 <_GLOBAL_OFFSET_TABLE_+0x168>
  401636:	68 2a 00 00 00       	pushq  $0x2a
  40163b:	e9 40 fd ff ff       	jmpq   401380 <_init+0x28>

0000000000401640 <__gxx_personality_v0@plt>:
  401640:	ff 25 2a 5b 20 00    	jmpq   *0x205b2a(%rip)        # 607170 <_GLOBAL_OFFSET_TABLE_+0x170>
  401646:	68 2b 00 00 00       	pushq  $0x2b
  40164b:	e9 30 fd ff ff       	jmpq   401380 <_init+0x28>

0000000000401650 <_Znwm@plt>:
  401650:	ff 25 22 5b 20 00    	jmpq   *0x205b22(%rip)        # 607178 <_GLOBAL_OFFSET_TABLE_+0x178>
  401656:	68 2c 00 00 00       	pushq  $0x2c
  40165b:	e9 20 fd ff ff       	jmpq   401380 <_init+0x28>

0000000000401660 <_Unwind_Resume@plt>:
  401660:	ff 25 1a 5b 20 00    	jmpq   *0x205b1a(%rip)        # 607180 <_GLOBAL_OFFSET_TABLE_+0x180>
  401666:	68 2d 00 00 00       	pushq  $0x2d
  40166b:	e9 10 fd ff ff       	jmpq   401380 <_init+0x28>

0000000000401670 <_ZNSsaSERKSs@plt>:
  401670:	ff 25 12 5b 20 00    	jmpq   *0x205b12(%rip)        # 607188 <_GLOBAL_OFFSET_TABLE_+0x188>
  401676:	68 2e 00 00 00       	pushq  $0x2e
  40167b:	e9 00 fd ff ff       	jmpq   401380 <_init+0x28>

0000000000401680 <memcpy@plt>:
  401680:	ff 25 0a 5b 20 00    	jmpq   *0x205b0a(%rip)        # 607190 <_GLOBAL_OFFSET_TABLE_+0x190>
  401686:	68 2f 00 00 00       	pushq  $0x2f
  40168b:	e9 f0 fc ff ff       	jmpq   401380 <_init+0x28>

0000000000401690 <_ZNSs6appendERKSs@plt>:
  401690:	ff 25 02 5b 20 00    	jmpq   *0x205b02(%rip)        # 607198 <_GLOBAL_OFFSET_TABLE_+0x198>
  401696:	68 30 00 00 00       	pushq  $0x30
  40169b:	e9 e0 fc ff ff       	jmpq   401380 <_init+0x28>

00000000004016a0 <_ZNSirsERj@plt>:
  4016a0:	ff 25 fa 5a 20 00    	jmpq   *0x205afa(%rip)        # 6071a0 <_GLOBAL_OFFSET_TABLE_+0x1a0>
  4016a6:	68 31 00 00 00       	pushq  $0x31
  4016ab:	e9 d0 fc ff ff       	jmpq   401380 <_init+0x28>

00000000004016b0 <_ZNSirsERf@plt>:
  4016b0:	ff 25 f2 5a 20 00    	jmpq   *0x205af2(%rip)        # 6071a8 <_GLOBAL_OFFSET_TABLE_+0x1a8>
  4016b6:	68 32 00 00 00       	pushq  $0x32
  4016bb:	e9 c0 fc ff ff       	jmpq   401380 <_init+0x28>

Disassembly of section .text:

00000000004016c0 <_start>:
  4016c0:	31 ed                	xor    %ebp,%ebp
  4016c2:	49 89 d1             	mov    %rdx,%r9
  4016c5:	5e                   	pop    %rsi
  4016c6:	48 89 e2             	mov    %rsp,%rdx
  4016c9:	48 83 e4 f0          	and    $0xfffffffffffffff0,%rsp
  4016cd:	50                   	push   %rax
  4016ce:	54                   	push   %rsp
  4016cf:	49 c7 c0 a0 4f 40 00 	mov    $0x404fa0,%r8
  4016d6:	48 c7 c1 30 4f 40 00 	mov    $0x404f30,%rcx
  4016dd:	48 c7 c7 98 19 40 00 	mov    $0x401998,%rdi
  4016e4:	e8 67 fd ff ff       	callq  401450 <__libc_start_main@plt>
  4016e9:	f4                   	hlt    
  4016ea:	66 0f 1f 44 00 00    	nopw   0x0(%rax,%rax,1)

00000000004016f0 <deregister_tm_clones>:
  4016f0:	b8 c7 71 60 00       	mov    $0x6071c7,%eax
  4016f5:	55                   	push   %rbp
  4016f6:	48 2d c0 71 60 00    	sub    $0x6071c0,%rax
  4016fc:	48 83 f8 0e          	cmp    $0xe,%rax
  401700:	48 89 e5             	mov    %rsp,%rbp
  401703:	77 02                	ja     401707 <deregister_tm_clones+0x17>
  401705:	5d                   	pop    %rbp
  401706:	c3                   	retq   
  401707:	b8 00 00 00 00       	mov    $0x0,%eax
  40170c:	48 85 c0             	test   %rax,%rax
  40170f:	74 f4                	je     401705 <deregister_tm_clones+0x15>
  401711:	5d                   	pop    %rbp
  401712:	bf c0 71 60 00       	mov    $0x6071c0,%edi
  401717:	ff e0                	jmpq   *%rax
  401719:	0f 1f 80 00 00 00 00 	nopl   0x0(%rax)

0000000000401720 <register_tm_clones>:
  401720:	b8 c0 71 60 00       	mov    $0x6071c0,%eax
  401725:	55                   	push   %rbp
  401726:	48 2d c0 71 60 00    	sub    $0x6071c0,%rax
  40172c:	48 c1 f8 03          	sar    $0x3,%rax
  401730:	48 89 e5             	mov    %rsp,%rbp
  401733:	48 89 c2             	mov    %rax,%rdx
  401736:	48 c1 ea 3f          	shr    $0x3f,%rdx
  40173a:	48 01 d0             	add    %rdx,%rax
  40173d:	48 d1 f8             	sar    %rax
  401740:	75 02                	jne    401744 <register_tm_clones+0x24>
  401742:	5d                   	pop    %rbp
  401743:	c3                   	retq   
  401744:	ba 00 00 00 00       	mov    $0x0,%edx
  401749:	48 85 d2             	test   %rdx,%rdx
  40174c:	74 f4                	je     401742 <register_tm_clones+0x22>
  40174e:	5d                   	pop    %rbp
  40174f:	48 89 c6             	mov    %rax,%rsi
  401752:	bf c0 71 60 00       	mov    $0x6071c0,%edi
  401757:	ff e2                	jmpq   *%rdx
  401759:	0f 1f 80 00 00 00 00 	nopl   0x0(%rax)

0000000000401760 <__do_global_dtors_aux>:
  401760:	80 3d 59 5a 20 00 00 	cmpb   $0x0,0x205a59(%rip)        # 6071c0 <__TMC_END__>
  401767:	75 11                	jne    40177a <__do_global_dtors_aux+0x1a>
  401769:	55                   	push   %rbp
  40176a:	48 89 e5             	mov    %rsp,%rbp
  40176d:	e8 7e ff ff ff       	callq  4016f0 <deregister_tm_clones>
  401772:	5d                   	pop    %rbp
  401773:	c6 05 46 5a 20 00 01 	movb   $0x1,0x205a46(%rip)        # 6071c0 <__TMC_END__>
  40177a:	f3 c3                	repz retq 
  40177c:	0f 1f 40 00          	nopl   0x0(%rax)

0000000000401780 <frame_dummy>:
  401780:	48 83 3d 78 56 20 00 	cmpq   $0x0,0x205678(%rip)        # 606e00 <__JCR_END__>
  401787:	00 
  401788:	74 1e                	je     4017a8 <frame_dummy+0x28>
  40178a:	b8 00 00 00 00       	mov    $0x0,%eax
  40178f:	48 85 c0             	test   %rax,%rax
  401792:	74 14                	je     4017a8 <frame_dummy+0x28>
  401794:	55                   	push   %rbp
  401795:	bf 00 6e 60 00       	mov    $0x606e00,%edi
  40179a:	48 89 e5             	mov    %rsp,%rbp
  40179d:	ff d0                	callq  *%rax
  40179f:	5d                   	pop    %rbp
  4017a0:	e9 7b ff ff ff       	jmpq   401720 <register_tm_clones>
  4017a5:	0f 1f 00             	nopl   (%rax)
  4017a8:	e9 73 ff ff ff       	jmpq   401720 <register_tm_clones>

00000000004017ad <_Z6RJhashj>:
  4017ad:	55                   	push   %rbp
  4017ae:	48 89 e5             	mov    %rsp,%rbp
  4017b1:	89 7d ec             	mov    %edi,-0x14(%rbp)
  4017b4:	8b 45 ec             	mov    -0x14(%rbp),%eax
  4017b7:	89 45 fc             	mov    %eax,-0x4(%rbp)
  4017ba:	8b 45 fc             	mov    -0x4(%rbp),%eax
  4017bd:	c1 e0 0c             	shl    $0xc,%eax
  4017c0:	89 c2                	mov    %eax,%edx
  4017c2:	8b 45 fc             	mov    -0x4(%rbp),%eax
  4017c5:	01 d0                	add    %edx,%eax
  4017c7:	05 16 5d d5 7e       	add    $0x7ed55d16,%eax
  4017cc:	89 45 fc             	mov    %eax,-0x4(%rbp)
  4017cf:	8b 45 fc             	mov    -0x4(%rbp),%eax
  4017d2:	c1 e8 13             	shr    $0x13,%eax
  4017d5:	33 45 fc             	xor    -0x4(%rbp),%eax
  4017d8:	35 3c c2 61 c7       	xor    $0xc761c23c,%eax
  4017dd:	89 45 fc             	mov    %eax,-0x4(%rbp)
  4017e0:	8b 45 fc             	mov    -0x4(%rbp),%eax
  4017e3:	c1 e0 05             	shl    $0x5,%eax
  4017e6:	89 c2                	mov    %eax,%edx
  4017e8:	8b 45 fc             	mov    -0x4(%rbp),%eax
  4017eb:	01 d0                	add    %edx,%eax
  4017ed:	05 b1 67 56 16       	add    $0x165667b1,%eax
  4017f2:	89 45 fc             	mov    %eax,-0x4(%rbp)
  4017f5:	8b 45 fc             	mov    -0x4(%rbp),%eax
  4017f8:	8d 90 6c 64 a2 d3    	lea    -0x2c5d9b94(%rax),%edx
  4017fe:	8b 45 fc             	mov    -0x4(%rbp),%eax
  401801:	c1 e0 09             	shl    $0x9,%eax
  401804:	31 d0                	xor    %edx,%eax
  401806:	89 45 fc             	mov    %eax,-0x4(%rbp)
  401809:	8b 45 fc             	mov    -0x4(%rbp),%eax
  40180c:	8d 14 c5 00 00 00 00 	lea    0x0(,%rax,8),%edx
  401813:	8b 45 fc             	mov    -0x4(%rbp),%eax
  401816:	01 d0                	add    %edx,%eax
  401818:	2d 3b b9 8f 02       	sub    $0x28fb93b,%eax
  40181d:	89 45 fc             	mov    %eax,-0x4(%rbp)
  401820:	8b 45 fc             	mov    -0x4(%rbp),%eax
  401823:	c1 e8 10             	shr    $0x10,%eax
  401826:	33 45 fc             	xor    -0x4(%rbp),%eax
  401829:	35 09 4f 5a b5       	xor    $0xb55a4f09,%eax
  40182e:	89 45 fc             	mov    %eax,-0x4(%rbp)
  401831:	8b 45 fc             	mov    -0x4(%rbp),%eax
  401834:	5d                   	pop    %rbp
  401835:	c3                   	retq   

0000000000401836 <_Z17insertBlockNumberjj>:
  401836:	55                   	push   %rbp
  401837:	48 89 e5             	mov    %rsp,%rbp
  40183a:	48 83 ec 20          	sub    $0x20,%rsp
  40183e:	89 7d ec             	mov    %edi,-0x14(%rbp)
  401841:	89 75 e8             	mov    %esi,-0x18(%rbp)
  401844:	8b 45 ec             	mov    -0x14(%rbp),%eax
  401847:	89 45 f0             	mov    %eax,-0x10(%rbp)
  40184a:	8b 45 e8             	mov    -0x18(%rbp),%eax
  40184d:	89 45 f4             	mov    %eax,-0xc(%rbp)
  401850:	48 8d 45 f0          	lea    -0x10(%rbp),%rax
  401854:	48 89 c6             	mov    %rax,%rsi
  401857:	bf 50 92 60 00       	mov    $0x609250,%edi
  40185c:	e8 35 29 00 00       	callq  404196 <_ZNSt6vectorI8SaveInfoSaIS0_EE9push_backERKS0_>
  401861:	c9                   	leaveq 
  401862:	c3                   	retq   

0000000000401863 <_Z16checkBlockNumberjj>:
  401863:	55                   	push   %rbp
  401864:	48 89 e5             	mov    %rsp,%rbp
  401867:	53                   	push   %rbx
  401868:	48 83 ec 28          	sub    $0x28,%rsp
  40186c:	89 7d dc             	mov    %edi,-0x24(%rbp)
  40186f:	89 75 d8             	mov    %esi,-0x28(%rbp)
  401872:	c6 45 eb 00          	movb   $0x0,-0x15(%rbp)
  401876:	c7 45 ec 00 00 00 00 	movl   $0x0,-0x14(%rbp)
  40187d:	eb 45                	jmp    4018c4 <_Z16checkBlockNumberjj+0x61>
  40187f:	8b 45 ec             	mov    -0x14(%rbp),%eax
  401882:	48 98                	cltq   
  401884:	48 89 c6             	mov    %rax,%rsi
  401887:	bf 50 92 60 00       	mov    $0x609250,%edi
  40188c:	e8 a5 29 00 00       	callq  404236 <_ZNSt6vectorI8SaveInfoSaIS0_EEixEm>
  401891:	8b 40 04             	mov    0x4(%rax),%eax
  401894:	3b 45 d8             	cmp    -0x28(%rbp),%eax
  401897:	0f 94 c0             	sete   %al
  40189a:	84 c0                	test   %al,%al
  40189c:	74 22                	je     4018c0 <_Z16checkBlockNumberjj+0x5d>
  40189e:	8b 45 ec             	mov    -0x14(%rbp),%eax
  4018a1:	48 98                	cltq   
  4018a3:	48 89 c6             	mov    %rax,%rsi
  4018a6:	bf 50 92 60 00       	mov    $0x609250,%edi
  4018ab:	e8 86 29 00 00       	callq  404236 <_ZNSt6vectorI8SaveInfoSaIS0_EEixEm>
  4018b0:	8b 00                	mov    (%rax),%eax
  4018b2:	3b 45 dc             	cmp    -0x24(%rbp),%eax
  4018b5:	0f 94 c0             	sete   %al
  4018b8:	84 c0                	test   %al,%al
  4018ba:	74 04                	je     4018c0 <_Z16checkBlockNumberjj+0x5d>
  4018bc:	c6 45 eb 01          	movb   $0x1,-0x15(%rbp)
  4018c0:	83 45 ec 01          	addl   $0x1,-0x14(%rbp)
  4018c4:	8b 45 ec             	mov    -0x14(%rbp),%eax
  4018c7:	48 63 d8             	movslq %eax,%rbx
  4018ca:	bf 50 92 60 00       	mov    $0x609250,%edi
  4018cf:	e8 3c 29 00 00       	callq  404210 <_ZNKSt6vectorI8SaveInfoSaIS0_EE4sizeEv>
  4018d4:	48 39 c3             	cmp    %rax,%rbx
  4018d7:	0f 92 c0             	setb   %al
  4018da:	84 c0                	test   %al,%al
  4018dc:	75 a1                	jne    40187f <_Z16checkBlockNumberjj+0x1c>
  4018de:	0f b6 45 eb          	movzbl -0x15(%rbp),%eax
  4018e2:	48 83 c4 28          	add    $0x28,%rsp
  4018e6:	5b                   	pop    %rbx
  4018e7:	5d                   	pop    %rbp
  4018e8:	c3                   	retq   

00000000004018e9 <_Z12deleteRecordj>:
  4018e9:	55                   	push   %rbp
  4018ea:	48 89 e5             	mov    %rsp,%rbp
  4018ed:	89 7d fc             	mov    %edi,-0x4(%rbp)
  4018f0:	b8 00 00 00 00       	mov    $0x0,%eax
  4018f5:	5d                   	pop    %rbp
  4018f6:	c3                   	retq   

00000000004018f7 <_Z8searchIDj>:
  4018f7:	55                   	push   %rbp
  4018f8:	48 89 e5             	mov    %rsp,%rbp
  4018fb:	48 83 ec 20          	sub    $0x20,%rsp
  4018ff:	89 7d ec             	mov    %edi,-0x14(%rbp)
  401902:	c7 45 f8 00 00 00 00 	movl   $0x0,-0x8(%rbp)
  401909:	8b 45 ec             	mov    -0x14(%rbp),%eax
  40190c:	89 c7                	mov    %eax,%edi
  40190e:	e8 9a fe ff ff       	callq  4017ad <_Z6RJhashj>
  401913:	89 45 fc             	mov    %eax,-0x4(%rbp)
  401916:	8b 45 fc             	mov    -0x4(%rbp),%eax
  401919:	89 c7                	mov    %eax,%edi
  40191b:	e8 f6 0c 00 00       	callq  402616 <_Z19getBlockNumFromHashj>
  401920:	89 45 f8             	mov    %eax,-0x8(%rbp)
  401923:	8b 45 f8             	mov    -0x8(%rbp),%eax
  401926:	c9                   	leaveq 
  401927:	c3                   	retq   

0000000000401928 <_Z11searchScoreff>:
  401928:	55                   	push   %rbp
  401929:	48 89 e5             	mov    %rsp,%rbp
  40192c:	48 83 ec 20          	sub    $0x20,%rsp
  401930:	f3 0f 11 45 ec       	movss  %xmm0,-0x14(%rbp)
  401935:	f3 0f 11 4d e8       	movss  %xmm1,-0x18(%rbp)
  40193a:	c7 45 fc 00 00 00 00 	movl   $0x0,-0x4(%rbp)
  401941:	bf 00 20 00 00       	mov    $0x2000,%edi
  401946:	e8 e5 fa ff ff       	callq  401430 <malloc@plt>
  40194b:	48 89 05 d6 58 20 00 	mov    %rax,0x2058d6(%rip)        # 607228 <currentNode>
  401952:	48 8b 0d c7 58 20 00 	mov    0x2058c7(%rip),%rcx        # 607220 <rootTree>
  401959:	48 8b 05 c8 58 20 00 	mov    0x2058c8(%rip),%rax        # 607228 <currentNode>
  401960:	ba 00 20 00 00       	mov    $0x2000,%edx
  401965:	48 89 ce             	mov    %rcx,%rsi
  401968:	48 89 c7             	mov    %rax,%rdi
  40196b:	e8 10 fd ff ff       	callq  401680 <memcpy@plt>
  401970:	8b 55 e8             	mov    -0x18(%rbp),%edx
  401973:	8b 45 ec             	mov    -0x14(%rbp),%eax
  401976:	bf 00 00 00 00       	mov    $0x0,%edi
  40197b:	89 55 e4             	mov    %edx,-0x1c(%rbp)
  40197e:	f3 0f 10 4d e4       	movss  -0x1c(%rbp),%xmm1
  401983:	89 45 e4             	mov    %eax,-0x1c(%rbp)
  401986:	f3 0f 10 45 e4       	movss  -0x1c(%rbp),%xmm0
  40198b:	e8 1f 25 00 00       	callq  403eaf <_Z11btreeSearchffj>
  401990:	89 45 fc             	mov    %eax,-0x4(%rbp)
  401993:	8b 45 fc             	mov    -0x4(%rbp),%eax
  401996:	c9                   	leaveq 
  401997:	c3                   	retq   

0000000000401998 <main>:
  401998:	55                   	push   %rbp
  401999:	48 89 e5             	mov    %rsp,%rbp
  40199c:	53                   	push   %rbx
  40199d:	48 81 ec f8 04 00 00 	sub    $0x4f8,%rsp
  4019a4:	64 48 8b 04 25 28 00 	mov    %fs:0x28,%rax
  4019ab:	00 00 
  4019ad:	48 89 45 e8          	mov    %rax,-0x18(%rbp)
  4019b1:	31 c0                	xor    %eax,%eax
  4019b3:	bf b8 4f 40 00       	mov    $0x404fb8,%edi
  4019b8:	e8 51 08 00 00       	callq  40220e <_Z6openDBPKc>
  4019bd:	48 8d 85 e0 fd ff ff 	lea    -0x220(%rbp),%rax
  4019c4:	ba 08 00 00 00       	mov    $0x8,%edx
  4019c9:	be bd 4f 40 00       	mov    $0x404fbd,%esi
  4019ce:	48 89 c7             	mov    %rax,%rdi
  4019d1:	e8 da fb ff ff       	callq  4015b0 <_ZNSt14basic_ifstreamIcSt11char_traitsIcEEC1EPKcSt13_Ios_Openmode@plt>
  4019d6:	48 8d 85 e0 fb ff ff 	lea    -0x420(%rbp),%rax
  4019dd:	ba 10 00 00 00       	mov    $0x10,%edx
  4019e2:	be cb 4f 40 00       	mov    $0x404fcb,%esi
  4019e7:	48 89 c7             	mov    %rax,%rdi
  4019ea:	e8 e1 fb ff ff       	callq  4015d0 <_ZNSt14basic_ofstreamIcSt11char_traitsIcEEC1EPKcSt13_Ios_Openmode@plt>
  4019ef:	e9 b1 04 00 00       	jmpq   401ea5 <main+0x50d>
  4019f4:	48 8d 85 90 fb ff ff 	lea    -0x470(%rbp),%rax
  4019fb:	48 89 c7             	mov    %rax,%rdi
  4019fe:	e8 2d fc ff ff       	callq  401630 <_ZNSaIcEC1Ev@plt>
  401a03:	48 8d 95 90 fb ff ff 	lea    -0x470(%rbp),%rdx
  401a0a:	48 8d 85 30 fb ff ff 	lea    -0x4d0(%rbp),%rax
  401a11:	be db 4f 40 00       	mov    $0x404fdb,%esi
  401a16:	48 89 c7             	mov    %rax,%rdi
  401a19:	e8 d2 fa ff ff       	callq  4014f0 <_ZNSsC1EPKcRKSaIcE@plt>
  401a1e:	48 8d 85 90 fb ff ff 	lea    -0x470(%rbp),%rax
  401a25:	48 89 c7             	mov    %rax,%rdi
  401a28:	e8 53 fb ff ff       	callq  401580 <_ZNSaIcED1Ev@plt>
  401a2d:	48 8d 95 30 fb ff ff 	lea    -0x4d0(%rbp),%rdx
  401a34:	48 8d 85 e0 fd ff ff 	lea    -0x220(%rbp),%rax
  401a3b:	48 89 d6             	mov    %rdx,%rsi
  401a3e:	48 89 c7             	mov    %rax,%rdi
  401a41:	e8 5a fa ff ff       	callq  4014a0 <_ZStrsIcSt11char_traitsIcESaIcEERSt13basic_istreamIT_T0_ES7_RSbIS4_S5_T1_E@plt>
  401a46:	48 8d 85 30 fb ff ff 	lea    -0x4d0(%rbp),%rax
  401a4d:	be dc 4f 40 00       	mov    $0x404fdc,%esi
  401a52:	48 89 c7             	mov    %rax,%rdi
  401a55:	e8 fc 27 00 00       	callq  404256 <_ZSteqIcSt11char_traitsIcESaIcEEbRKSbIT_T0_T1_EPKS3_>
  401a5a:	84 c0                	test   %al,%al
  401a5c:	0f 84 b3 02 00 00    	je     401d15 <main+0x37d>
  401a62:	48 8d 85 90 fb ff ff 	lea    -0x470(%rbp),%rax
  401a69:	48 89 c7             	mov    %rax,%rdi
  401a6c:	e8 bf fb ff ff       	callq  401630 <_ZNSaIcEC1Ev@plt>
  401a71:	48 8d 95 90 fb ff ff 	lea    -0x470(%rbp),%rdx
  401a78:	48 8d 85 40 fb ff ff 	lea    -0x4c0(%rbp),%rax
  401a7f:	be db 4f 40 00       	mov    $0x404fdb,%esi
  401a84:	48 89 c7             	mov    %rax,%rdi
  401a87:	e8 64 fa ff ff       	callq  4014f0 <_ZNSsC1EPKcRKSaIcE@plt>
  401a8c:	48 8d 85 90 fb ff ff 	lea    -0x470(%rbp),%rax
  401a93:	48 89 c7             	mov    %rax,%rdi
  401a96:	e8 e5 fa ff ff       	callq  401580 <_ZNSaIcED1Ev@plt>
  401a9b:	48 8d 85 90 fb ff ff 	lea    -0x470(%rbp),%rax
  401aa2:	48 89 c7             	mov    %rax,%rdi
  401aa5:	e8 86 fb ff ff       	callq  401630 <_ZNSaIcEC1Ev@plt>
  401aaa:	48 8d 95 90 fb ff ff 	lea    -0x470(%rbp),%rdx
  401ab1:	48 8d 85 50 fb ff ff 	lea    -0x4b0(%rbp),%rax
  401ab8:	be db 4f 40 00       	mov    $0x404fdb,%esi
  401abd:	48 89 c7             	mov    %rax,%rdi
  401ac0:	e8 2b fa ff ff       	callq  4014f0 <_ZNSsC1EPKcRKSaIcE@plt>
  401ac5:	48 8d 85 90 fb ff ff 	lea    -0x470(%rbp),%rax
  401acc:	48 89 c7             	mov    %rax,%rdi
  401acf:	e8 ac fa ff ff       	callq  401580 <_ZNSaIcED1Ev@plt>
  401ad4:	48 8d 85 90 fb ff ff 	lea    -0x470(%rbp),%rax
  401adb:	48 89 c7             	mov    %rax,%rdi
  401ade:	e8 4d fb ff ff       	callq  401630 <_ZNSaIcEC1Ev@plt>
  401ae3:	48 8d 95 90 fb ff ff 	lea    -0x470(%rbp),%rdx
  401aea:	48 8d 85 60 fb ff ff 	lea    -0x4a0(%rbp),%rax
  401af1:	be db 4f 40 00       	mov    $0x404fdb,%esi
  401af6:	48 89 c7             	mov    %rax,%rdi
  401af9:	e8 f2 f9 ff ff       	callq  4014f0 <_ZNSsC1EPKcRKSaIcE@plt>
  401afe:	48 8d 85 90 fb ff ff 	lea    -0x470(%rbp),%rax
  401b05:	48 89 c7             	mov    %rax,%rdi
  401b08:	e8 73 fa ff ff       	callq  401580 <_ZNSaIcED1Ev@plt>
  401b0d:	c7 85 1c fb ff ff 00 	movl   $0x0,-0x4e4(%rbp)
  401b14:	00 00 00 
  401b17:	8b 05 4b 35 00 00    	mov    0x354b(%rip),%eax        # 405068 <_ZZL18__gthread_active_pvE20__gthread_active_ptr+0x8>
  401b1d:	89 85 20 fb ff ff    	mov    %eax,-0x4e0(%rbp)
  401b23:	48 8d 85 90 fb ff ff 	lea    -0x470(%rbp),%rax
  401b2a:	48 89 c7             	mov    %rax,%rdi
  401b2d:	e8 fe fa ff ff       	callq  401630 <_ZNSaIcEC1Ev@plt>
  401b32:	48 8d 95 90 fb ff ff 	lea    -0x470(%rbp),%rdx
  401b39:	48 8d 85 70 fb ff ff 	lea    -0x490(%rbp),%rax
  401b40:	be db 4f 40 00       	mov    $0x404fdb,%esi
  401b45:	48 89 c7             	mov    %rax,%rdi
  401b48:	e8 a3 f9 ff ff       	callq  4014f0 <_ZNSsC1EPKcRKSaIcE@plt>
  401b4d:	48 8d 85 90 fb ff ff 	lea    -0x470(%rbp),%rax
  401b54:	48 89 c7             	mov    %rax,%rdi
  401b57:	e8 24 fa ff ff       	callq  401580 <_ZNSaIcED1Ev@plt>
  401b5c:	48 8d 95 40 fb ff ff 	lea    -0x4c0(%rbp),%rdx
  401b63:	48 8d 85 e0 fd ff ff 	lea    -0x220(%rbp),%rax
  401b6a:	48 89 d6             	mov    %rdx,%rsi
  401b6d:	48 89 c7             	mov    %rax,%rdi
  401b70:	e8 2b f9 ff ff       	callq  4014a0 <_ZStrsIcSt11char_traitsIcESaIcEERSt13basic_istreamIT_T0_ES7_RSbIS4_S5_T1_E@plt>
  401b75:	48 8d 95 50 fb ff ff 	lea    -0x4b0(%rbp),%rdx
  401b7c:	48 89 d6             	mov    %rdx,%rsi
  401b7f:	48 89 c7             	mov    %rax,%rdi
  401b82:	e8 19 f9 ff ff       	callq  4014a0 <_ZStrsIcSt11char_traitsIcESaIcEERSt13basic_istreamIT_T0_ES7_RSbIS4_S5_T1_E@plt>
  401b87:	48 8d 95 1c fb ff ff 	lea    -0x4e4(%rbp),%rdx
  401b8e:	48 89 d6             	mov    %rdx,%rsi
  401b91:	48 89 c7             	mov    %rax,%rdi
  401b94:	e8 07 fb ff ff       	callq  4016a0 <_ZNSirsERj@plt>
  401b99:	48 8d 95 20 fb ff ff 	lea    -0x4e0(%rbp),%rdx
  401ba0:	48 89 d6             	mov    %rdx,%rsi
  401ba3:	48 89 c7             	mov    %rax,%rdi
  401ba6:	e8 05 fb ff ff       	callq  4016b0 <_ZNSirsERf@plt>
  401bab:	48 8d 95 70 fb ff ff 	lea    -0x490(%rbp),%rdx
  401bb2:	48 89 d6             	mov    %rdx,%rsi
  401bb5:	48 89 c7             	mov    %rax,%rdi
  401bb8:	e8 e3 f8 ff ff       	callq  4014a0 <_ZStrsIcSt11char_traitsIcESaIcEERSt13basic_istreamIT_T0_ES7_RSbIS4_S5_T1_E@plt>
  401bbd:	48 8d 85 80 fb ff ff 	lea    -0x480(%rbp),%rax
  401bc4:	48 8d 8d 40 fb ff ff 	lea    -0x4c0(%rbp),%rcx
  401bcb:	ba de 4f 40 00       	mov    $0x404fde,%edx
  401bd0:	48 89 ce             	mov    %rcx,%rsi
  401bd3:	48 89 c7             	mov    %rax,%rdi
  401bd6:	e8 a5 26 00 00       	callq  404280 <_ZStplIcSt11char_traitsIcESaIcEESbIT_T0_T1_ERKS6_PKS3_>
  401bdb:	48 8d 85 90 fb ff ff 	lea    -0x470(%rbp),%rax
  401be2:	48 8d 95 50 fb ff ff 	lea    -0x4b0(%rbp),%rdx
  401be9:	48 8d 8d 80 fb ff ff 	lea    -0x480(%rbp),%rcx
  401bf0:	48 89 ce             	mov    %rcx,%rsi
  401bf3:	48 89 c7             	mov    %rax,%rdi
  401bf6:	e8 e7 26 00 00       	callq  4042e2 <_ZStplIcSt11char_traitsIcESaIcEESbIT_T0_T1_ERKS6_S8_>
  401bfb:	48 8d 95 90 fb ff ff 	lea    -0x470(%rbp),%rdx
  401c02:	48 8d 85 60 fb ff ff 	lea    -0x4a0(%rbp),%rax
  401c09:	48 89 d6             	mov    %rdx,%rsi
  401c0c:	48 89 c7             	mov    %rax,%rdi
  401c0f:	e8 5c fa ff ff       	callq  401670 <_ZNSsaSERKSs@plt>
  401c14:	48 8d 85 90 fb ff ff 	lea    -0x470(%rbp),%rax
  401c1b:	48 89 c7             	mov    %rax,%rdi
  401c1e:	e8 8d f8 ff ff       	callq  4014b0 <_ZNSsD1Ev@plt>
  401c23:	48 8d 85 80 fb ff ff 	lea    -0x480(%rbp),%rax
  401c2a:	48 89 c7             	mov    %rax,%rdi
  401c2d:	e8 7e f8 ff ff       	callq  4014b0 <_ZNSsD1Ev@plt>
  401c32:	48 8d 85 60 fb ff ff 	lea    -0x4a0(%rbp),%rax
  401c39:	48 89 c7             	mov    %rax,%rdi
  401c3c:	e8 9f f7 ff ff       	callq  4013e0 <_ZNKSs5c_strEv@plt>
  401c41:	48 89 c2             	mov    %rax,%rdx
  401c44:	48 8d 85 a0 fb ff ff 	lea    -0x460(%rbp),%rax
  401c4b:	48 89 d6             	mov    %rdx,%rsi
  401c4e:	48 89 c7             	mov    %rax,%rdi
  401c51:	e8 3a f9 ff ff       	callq  401590 <strcpy@plt>
  401c56:	48 8d 85 70 fb ff ff 	lea    -0x490(%rbp),%rax
  401c5d:	48 89 c7             	mov    %rax,%rdi
  401c60:	e8 7b f7 ff ff       	callq  4013e0 <_ZNKSs5c_strEv@plt>
  401c65:	48 89 c2             	mov    %rax,%rdx
  401c68:	48 8d 85 c0 fb ff ff 	lea    -0x440(%rbp),%rax
  401c6f:	48 89 d6             	mov    %rdx,%rsi
  401c72:	48 89 c7             	mov    %rax,%rdi
  401c75:	e8 16 f9 ff ff       	callq  401590 <strcpy@plt>
  401c7a:	8b 85 20 fb ff ff    	mov    -0x4e0(%rbp),%eax
  401c80:	8b b5 1c fb ff ff    	mov    -0x4e4(%rbp),%esi
  401c86:	48 8d 95 c0 fb ff ff 	lea    -0x440(%rbp),%rdx
  401c8d:	48 8d 8d a0 fb ff ff 	lea    -0x460(%rbp),%rcx
  401c94:	89 85 0c fb ff ff    	mov    %eax,-0x4f4(%rbp)
  401c9a:	f3 0f 10 85 0c fb ff 	movss  -0x4f4(%rbp),%xmm0
  401ca1:	ff 
  401ca2:	48 89 cf             	mov    %rcx,%rdi
  401ca5:	e8 c8 13 00 00       	callq  403072 <_Z12insertRecordPcjfS_>
  401caa:	89 85 24 fb ff ff    	mov    %eax,-0x4dc(%rbp)
  401cb0:	8b 05 2a 55 20 00    	mov    0x20552a(%rip),%eax        # 6071e0 <InsertCount>
  401cb6:	83 c0 01             	add    $0x1,%eax
  401cb9:	89 05 21 55 20 00    	mov    %eax,0x205521(%rip)        # 6071e0 <InsertCount>
  401cbf:	8b 95 1c fb ff ff    	mov    -0x4e4(%rbp),%edx
  401cc5:	8b 85 24 fb ff ff    	mov    -0x4dc(%rbp),%eax
  401ccb:	89 d6                	mov    %edx,%esi
  401ccd:	89 c7                	mov    %eax,%edi
  401ccf:	e8 62 fb ff ff       	callq  401836 <_Z17insertBlockNumberjj>
  401cd4:	48 8d 85 70 fb ff ff 	lea    -0x490(%rbp),%rax
  401cdb:	48 89 c7             	mov    %rax,%rdi
  401cde:	e8 cd f7 ff ff       	callq  4014b0 <_ZNSsD1Ev@plt>
  401ce3:	48 8d 85 60 fb ff ff 	lea    -0x4a0(%rbp),%rax
  401cea:	48 89 c7             	mov    %rax,%rdi
  401ced:	e8 be f7 ff ff       	callq  4014b0 <_ZNSsD1Ev@plt>
  401cf2:	48 8d 85 50 fb ff ff 	lea    -0x4b0(%rbp),%rax
  401cf9:	48 89 c7             	mov    %rax,%rdi
  401cfc:	e8 af f7 ff ff       	callq  4014b0 <_ZNSsD1Ev@plt>
  401d01:	48 8d 85 40 fb ff ff 	lea    -0x4c0(%rbp),%rax
  401d08:	48 89 c7             	mov    %rax,%rdi
  401d0b:	e8 a0 f7 ff ff       	callq  4014b0 <_ZNSsD1Ev@plt>
  401d10:	e9 81 01 00 00       	jmpq   401e96 <main+0x4fe>
  401d15:	48 8d 85 30 fb ff ff 	lea    -0x4d0(%rbp),%rax
  401d1c:	be e1 4f 40 00       	mov    $0x404fe1,%esi
  401d21:	48 89 c7             	mov    %rax,%rdi
  401d24:	e8 2d 25 00 00       	callq  404256 <_ZSteqIcSt11char_traitsIcESaIcEEbRKSbIT_T0_T1_EPKS3_>
  401d29:	84 c0                	test   %al,%al
  401d2b:	0f 84 af 00 00 00    	je     401de0 <main+0x448>
  401d31:	c7 85 90 fb ff ff 00 	movl   $0x0,-0x470(%rbp)
  401d38:	00 00 00 
  401d3b:	48 8d 95 90 fb ff ff 	lea    -0x470(%rbp),%rdx
  401d42:	48 8d 85 e0 fd ff ff 	lea    -0x220(%rbp),%rax
  401d49:	48 89 d6             	mov    %rdx,%rsi
  401d4c:	48 89 c7             	mov    %rax,%rdi
  401d4f:	e8 4c f9 ff ff       	callq  4016a0 <_ZNSirsERj@plt>
  401d54:	8b 85 90 fb ff ff    	mov    -0x470(%rbp),%eax
  401d5a:	89 c7                	mov    %eax,%edi
  401d5c:	e8 96 fb ff ff       	callq  4018f7 <_Z8searchIDj>
  401d61:	89 85 28 fb ff ff    	mov    %eax,-0x4d8(%rbp)
  401d67:	c6 85 1b fb ff ff 00 	movb   $0x0,-0x4e5(%rbp)
  401d6e:	8b 95 90 fb ff ff    	mov    -0x470(%rbp),%edx
  401d74:	8b 85 28 fb ff ff    	mov    -0x4d8(%rbp),%eax
  401d7a:	89 d6                	mov    %edx,%esi
  401d7c:	89 c7                	mov    %eax,%edi
  401d7e:	e8 e0 fa ff ff       	callq  401863 <_Z16checkBlockNumberjj>
  401d83:	88 85 1b fb ff ff    	mov    %al,-0x4e5(%rbp)
  401d89:	80 bd 1b fb ff ff 00 	cmpb   $0x0,-0x4e5(%rbp)
  401d90:	74 23                	je     401db5 <main+0x41d>
  401d92:	48 8d 85 e0 fb ff ff 	lea    -0x420(%rbp),%rax
  401d99:	be e3 4f 40 00       	mov    $0x404fe3,%esi
  401d9e:	48 89 c7             	mov    %rax,%rdi
  401da1:	e8 ea f6 ff ff       	callq  401490 <_ZStlsISt11char_traitsIcEERSt13basic_ostreamIcT_ES5_PKc@plt>
  401da6:	be 00 16 40 00       	mov    $0x401600,%esi
  401dab:	48 89 c7             	mov    %rax,%rdi
  401dae:	e8 0d f8 ff ff       	callq  4015c0 <_ZNSolsEPFRSoS_E@plt>
  401db3:	eb 26                	jmp    401ddb <main+0x443>
  401db5:	48 8d 85 e0 fb ff ff 	lea    -0x420(%rbp),%rax
  401dbc:	be e8 4f 40 00       	mov    $0x404fe8,%esi
  401dc1:	48 89 c7             	mov    %rax,%rdi
  401dc4:	e8 c7 f6 ff ff       	callq  401490 <_ZStlsISt11char_traitsIcEERSt13basic_ostreamIcT_ES5_PKc@plt>
  401dc9:	be 00 16 40 00       	mov    $0x401600,%esi
  401dce:	48 89 c7             	mov    %rax,%rdi
  401dd1:	e8 ea f7 ff ff       	callq  4015c0 <_ZNSolsEPFRSoS_E@plt>
  401dd6:	e9 bb 00 00 00       	jmpq   401e96 <main+0x4fe>
  401ddb:	e9 b6 00 00 00       	jmpq   401e96 <main+0x4fe>
  401de0:	48 8d 85 30 fb ff ff 	lea    -0x4d0(%rbp),%rax
  401de7:	be ee 4f 40 00       	mov    $0x404fee,%esi
  401dec:	48 89 c7             	mov    %rax,%rdi
  401def:	e8 62 24 00 00       	callq  404256 <_ZSteqIcSt11char_traitsIcESaIcEEbRKSbIT_T0_T1_EPKS3_>
  401df4:	84 c0                	test   %al,%al
  401df6:	0f 84 9a 00 00 00    	je     401e96 <main+0x4fe>
  401dfc:	8b 05 66 32 00 00    	mov    0x3266(%rip),%eax        # 405068 <_ZZL18__gthread_active_pvE20__gthread_active_ptr+0x8>
  401e02:	89 85 80 fb ff ff    	mov    %eax,-0x480(%rbp)
  401e08:	8b 05 5a 32 00 00    	mov    0x325a(%rip),%eax        # 405068 <_ZZL18__gthread_active_pvE20__gthread_active_ptr+0x8>
  401e0e:	89 85 90 fb ff ff    	mov    %eax,-0x470(%rbp)
  401e14:	48 8d 95 80 fb ff ff 	lea    -0x480(%rbp),%rdx
  401e1b:	48 8d 85 e0 fd ff ff 	lea    -0x220(%rbp),%rax
  401e22:	48 89 d6             	mov    %rdx,%rsi
  401e25:	48 89 c7             	mov    %rax,%rdi
  401e28:	e8 83 f8 ff ff       	callq  4016b0 <_ZNSirsERf@plt>
  401e2d:	48 8d 95 90 fb ff ff 	lea    -0x470(%rbp),%rdx
  401e34:	48 89 d6             	mov    %rdx,%rsi
  401e37:	48 89 c7             	mov    %rax,%rdi
  401e3a:	e8 71 f8 ff ff       	callq  4016b0 <_ZNSirsERf@plt>
  401e3f:	8b 95 90 fb ff ff    	mov    -0x470(%rbp),%edx
  401e45:	8b 85 80 fb ff ff    	mov    -0x480(%rbp),%eax
  401e4b:	89 95 0c fb ff ff    	mov    %edx,-0x4f4(%rbp)
  401e51:	f3 0f 10 8d 0c fb ff 	movss  -0x4f4(%rbp),%xmm1
  401e58:	ff 
  401e59:	89 85 0c fb ff ff    	mov    %eax,-0x4f4(%rbp)
  401e5f:	f3 0f 10 85 0c fb ff 	movss  -0x4f4(%rbp),%xmm0
  401e66:	ff 
  401e67:	e8 bc fa ff ff       	callq  401928 <_Z11searchScoreff>
  401e6c:	89 85 2c fb ff ff    	mov    %eax,-0x4d4(%rbp)
  401e72:	8b 95 2c fb ff ff    	mov    -0x4d4(%rbp),%edx
  401e78:	48 8d 85 e0 fb ff ff 	lea    -0x420(%rbp),%rax
  401e7f:	89 d6                	mov    %edx,%esi
  401e81:	48 89 c7             	mov    %rax,%rdi
  401e84:	e8 a7 f6 ff ff       	callq  401530 <_ZNSolsEj@plt>
  401e89:	be 00 16 40 00       	mov    $0x401600,%esi
  401e8e:	48 89 c7             	mov    %rax,%rdi
  401e91:	e8 2a f7 ff ff       	callq  4015c0 <_ZNSolsEPFRSoS_E@plt>
  401e96:	48 8d 85 30 fb ff ff 	lea    -0x4d0(%rbp),%rax
  401e9d:	48 89 c7             	mov    %rax,%rdi
  401ea0:	e8 0b f6 ff ff       	callq  4014b0 <_ZNSsD1Ev@plt>
  401ea5:	48 8d 85 e0 fd ff ff 	lea    -0x220(%rbp),%rax
  401eac:	48 05 00 01 00 00    	add    $0x100,%rax
  401eb2:	48 89 c7             	mov    %rax,%rdi
  401eb5:	e8 66 f6 ff ff       	callq  401520 <_ZNKSt9basic_iosIcSt11char_traitsIcEE3eofEv@plt>
  401eba:	83 f0 01             	xor    $0x1,%eax
  401ebd:	84 c0                	test   %al,%al
  401ebf:	0f 85 2f fb ff ff    	jne    4019f4 <main+0x5c>
  401ec5:	48 8d 85 e0 fb ff ff 	lea    -0x420(%rbp),%rax
  401ecc:	48 89 c7             	mov    %rax,%rdi
  401ecf:	e8 6c f6 ff ff       	callq  401540 <_ZNSt14basic_ofstreamIcSt11char_traitsIcEE5closeEv@plt>
  401ed4:	48 8d 85 e0 fd ff ff 	lea    -0x220(%rbp),%rax
  401edb:	48 89 c7             	mov    %rax,%rdi
  401ede:	e8 bd f4 ff ff       	callq  4013a0 <_ZNSt14basic_ifstreamIcSt11char_traitsIcEE5closeEv@plt>
  401ee3:	bb 00 00 00 00       	mov    $0x0,%ebx
  401ee8:	48 8d 85 e0 fb ff ff 	lea    -0x420(%rbp),%rax
  401eef:	48 89 c7             	mov    %rax,%rdi
  401ef2:	e8 19 f6 ff ff       	callq  401510 <_ZNSt14basic_ofstreamIcSt11char_traitsIcEED1Ev@plt>
  401ef7:	48 8d 85 e0 fd ff ff 	lea    -0x220(%rbp),%rax
  401efe:	48 89 c7             	mov    %rax,%rdi
  401f01:	e8 fa f5 ff ff       	callq  401500 <_ZNSt14basic_ifstreamIcSt11char_traitsIcEED1Ev@plt>
  401f06:	89 d8                	mov    %ebx,%eax
  401f08:	48 8b 4d e8          	mov    -0x18(%rbp),%rcx
  401f0c:	64 48 33 0c 25 28 00 	xor    %fs:0x28,%rcx
  401f13:	00 00 
  401f15:	0f 84 34 01 00 00    	je     40204f <main+0x6b7>
  401f1b:	e9 2a 01 00 00       	jmpq   40204a <main+0x6b2>
  401f20:	48 89 c3             	mov    %rax,%rbx
  401f23:	48 8d 85 90 fb ff ff 	lea    -0x470(%rbp),%rax
  401f2a:	48 89 c7             	mov    %rax,%rdi
  401f2d:	e8 4e f6 ff ff       	callq  401580 <_ZNSaIcED1Ev@plt>
  401f32:	e9 e5 00 00 00       	jmpq   40201c <main+0x684>
  401f37:	48 89 c3             	mov    %rax,%rbx
  401f3a:	48 8d 85 90 fb ff ff 	lea    -0x470(%rbp),%rax
  401f41:	48 89 c7             	mov    %rax,%rdi
  401f44:	e8 37 f6 ff ff       	callq  401580 <_ZNSaIcED1Ev@plt>
  401f49:	e9 ba 00 00 00       	jmpq   402008 <main+0x670>
  401f4e:	48 89 c3             	mov    %rax,%rbx
  401f51:	48 8d 85 90 fb ff ff 	lea    -0x470(%rbp),%rax
  401f58:	48 89 c7             	mov    %rax,%rdi
  401f5b:	e8 20 f6 ff ff       	callq  401580 <_ZNSaIcED1Ev@plt>
  401f60:	e9 8f 00 00 00       	jmpq   401ff4 <main+0x65c>
  401f65:	48 89 c3             	mov    %rax,%rbx
  401f68:	48 8d 85 90 fb ff ff 	lea    -0x470(%rbp),%rax
  401f6f:	48 89 c7             	mov    %rax,%rdi
  401f72:	e8 09 f6 ff ff       	callq  401580 <_ZNSaIcED1Ev@plt>
  401f77:	eb 67                	jmp    401fe0 <main+0x648>
  401f79:	48 89 c3             	mov    %rax,%rbx
  401f7c:	48 8d 85 90 fb ff ff 	lea    -0x470(%rbp),%rax
  401f83:	48 89 c7             	mov    %rax,%rdi
  401f86:	e8 f5 f5 ff ff       	callq  401580 <_ZNSaIcED1Ev@plt>
  401f8b:	eb 3f                	jmp    401fcc <main+0x634>
  401f8d:	48 89 c3             	mov    %rax,%rbx
  401f90:	48 8d 85 90 fb ff ff 	lea    -0x470(%rbp),%rax
  401f97:	48 89 c7             	mov    %rax,%rdi
  401f9a:	e8 11 f5 ff ff       	callq  4014b0 <_ZNSsD1Ev@plt>
  401f9f:	eb 03                	jmp    401fa4 <main+0x60c>
  401fa1:	48 89 c3             	mov    %rax,%rbx
  401fa4:	48 8d 85 80 fb ff ff 	lea    -0x480(%rbp),%rax
  401fab:	48 89 c7             	mov    %rax,%rdi
  401fae:	e8 fd f4 ff ff       	callq  4014b0 <_ZNSsD1Ev@plt>
  401fb3:	eb 03                	jmp    401fb8 <main+0x620>
  401fb5:	48 89 c3             	mov    %rax,%rbx
  401fb8:	48 8d 85 70 fb ff ff 	lea    -0x490(%rbp),%rax
  401fbf:	48 89 c7             	mov    %rax,%rdi
  401fc2:	e8 e9 f4 ff ff       	callq  4014b0 <_ZNSsD1Ev@plt>
  401fc7:	eb 03                	jmp    401fcc <main+0x634>
  401fc9:	48 89 c3             	mov    %rax,%rbx
  401fcc:	48 8d 85 60 fb ff ff 	lea    -0x4a0(%rbp),%rax
  401fd3:	48 89 c7             	mov    %rax,%rdi
  401fd6:	e8 d5 f4 ff ff       	callq  4014b0 <_ZNSsD1Ev@plt>
  401fdb:	eb 03                	jmp    401fe0 <main+0x648>
  401fdd:	48 89 c3             	mov    %rax,%rbx
  401fe0:	48 8d 85 50 fb ff ff 	lea    -0x4b0(%rbp),%rax
  401fe7:	48 89 c7             	mov    %rax,%rdi
  401fea:	e8 c1 f4 ff ff       	callq  4014b0 <_ZNSsD1Ev@plt>
  401fef:	eb 03                	jmp    401ff4 <main+0x65c>
  401ff1:	48 89 c3             	mov    %rax,%rbx
  401ff4:	48 8d 85 40 fb ff ff 	lea    -0x4c0(%rbp),%rax
  401ffb:	48 89 c7             	mov    %rax,%rdi
  401ffe:	e8 ad f4 ff ff       	callq  4014b0 <_ZNSsD1Ev@plt>
  402003:	eb 03                	jmp    402008 <main+0x670>
  402005:	48 89 c3             	mov    %rax,%rbx
  402008:	48 8d 85 30 fb ff ff 	lea    -0x4d0(%rbp),%rax
  40200f:	48 89 c7             	mov    %rax,%rdi
  402012:	e8 99 f4 ff ff       	callq  4014b0 <_ZNSsD1Ev@plt>
  402017:	eb 03                	jmp    40201c <main+0x684>
  402019:	48 89 c3             	mov    %rax,%rbx
  40201c:	48 8d 85 e0 fb ff ff 	lea    -0x420(%rbp),%rax
  402023:	48 89 c7             	mov    %rax,%rdi
  402026:	e8 e5 f4 ff ff       	callq  401510 <_ZNSt14basic_ofstreamIcSt11char_traitsIcEED1Ev@plt>
  40202b:	eb 03                	jmp    402030 <main+0x698>
  40202d:	48 89 c3             	mov    %rax,%rbx
  402030:	48 8d 85 e0 fd ff ff 	lea    -0x220(%rbp),%rax
  402037:	48 89 c7             	mov    %rax,%rdi
  40203a:	e8 c1 f4 ff ff       	callq  401500 <_ZNSt14basic_ifstreamIcSt11char_traitsIcEED1Ev@plt>
  40203f:	48 89 d8             	mov    %rbx,%rax
  402042:	48 89 c7             	mov    %rax,%rdi
  402045:	e8 16 f6 ff ff       	callq  401660 <_Unwind_Resume@plt>
  40204a:	e8 21 f5 ff ff       	callq  401570 <__stack_chk_fail@plt>
  40204f:	48 81 c4 f8 04 00 00 	add    $0x4f8,%rsp
  402056:	5b                   	pop    %rbx
  402057:	5d                   	pop    %rbp
  402058:	c3                   	retq   

0000000000402059 <_Z12initDataBasev>:
  402059:	55                   	push   %rbp
  40205a:	48 89 e5             	mov    %rsp,%rbp
  40205d:	48 83 ec 30          	sub    $0x30,%rsp
  402061:	c7 45 f0 00 00 00 00 	movl   $0x0,-0x10(%rbp)
  402068:	c7 45 f4 00 00 00 00 	movl   $0x0,-0xc(%rbp)
  40206f:	c7 45 f8 00 00 00 00 	movl   $0x0,-0x8(%rbp)
  402076:	c7 45 fc ff ff ff ff 	movl   $0xffffffff,-0x4(%rbp)
  40207d:	bf 08 00 00 00       	mov    $0x8,%edi
  402082:	e8 a9 f3 ff ff       	callq  401430 <malloc@plt>
  402087:	48 89 05 72 51 20 00 	mov    %rax,0x205172(%rip)        # 607200 <hashTable>
  40208e:	48 8b 05 6b 51 20 00 	mov    0x20516b(%rip),%rax        # 607200 <hashTable>
  402095:	ba 08 00 00 00       	mov    $0x8,%edx
  40209a:	be 00 00 00 00       	mov    $0x0,%esi
  40209f:	48 89 c7             	mov    %rax,%rdi
  4020a2:	e8 09 f3 ff ff       	callq  4013b0 <memset@plt>
  4020a7:	bf 00 20 00 00       	mov    $0x2000,%edi
  4020ac:	e8 7f f3 ff ff       	callq  401430 <malloc@plt>
  4020b1:	48 89 45 d8          	mov    %rax,-0x28(%rbp)
  4020b5:	48 8b 45 d8          	mov    -0x28(%rbp),%rax
  4020b9:	ba 00 20 00 00       	mov    $0x2000,%edx
  4020be:	be 00 00 00 00       	mov    $0x0,%esi
  4020c3:	48 89 c7             	mov    %rax,%rdi
  4020c6:	e8 e5 f2 ff ff       	callq  4013b0 <memset@plt>
  4020cb:	48 8b 45 d8          	mov    -0x28(%rbp),%rax
  4020cf:	48 89 45 e0          	mov    %rax,-0x20(%rbp)
  4020d3:	48 8b 45 e0          	mov    -0x20(%rbp),%rax
  4020d7:	8b 40 04             	mov    0x4(%rax),%eax
  4020da:	8d 50 01             	lea    0x1(%rax),%edx
  4020dd:	48 8b 45 e0          	mov    -0x20(%rbp),%rax
  4020e1:	89 50 04             	mov    %edx,0x4(%rax)
  4020e4:	48 8b 05 15 51 20 00 	mov    0x205115(%rip),%rax        # 607200 <hashTable>
  4020eb:	48 8b 55 d8          	mov    -0x28(%rbp),%rdx
  4020ef:	48 89 10             	mov    %rdx,(%rax)
  4020f2:	48 8b 45 d8          	mov    -0x28(%rbp),%rax
  4020f6:	48 89 05 0b 51 20 00 	mov    %rax,0x20510b(%rip)        # 607208 <currentBucket>
  4020fd:	c7 05 0d 51 20 00 00 	movl   $0x0,0x20510d(%rip)        # 607214 <currentBucketNum>
  402104:	00 00 00 
  402107:	c7 05 07 51 20 00 01 	movl   $0x1,0x205107(%rip)        # 607218 <currentBucketCount>
  40210e:	00 00 00 
  402111:	48 c7 45 e8 40 72 60 	movq   $0x607240,-0x18(%rbp)
  402118:	00 
  402119:	b8 a8 02 00 00       	mov    $0x2a8,%eax
  40211e:	48 8b 55 e8          	mov    -0x18(%rbp),%rdx
  402122:	48 8d 4a 08          	lea    0x8(%rdx),%rcx
  402126:	48 89 c2             	mov    %rax,%rdx
  402129:	be ff 00 00 00       	mov    $0xff,%esi
  40212e:	48 89 cf             	mov    %rcx,%rdi
  402131:	e8 7a f2 ff ff       	callq  4013b0 <memset@plt>
  402136:	bf 00 20 00 00       	mov    $0x2000,%edi
  40213b:	e8 f0 f2 ff ff       	callq  401430 <malloc@plt>
  402140:	48 89 05 d9 50 20 00 	mov    %rax,0x2050d9(%rip)        # 607220 <rootTree>
  402147:	48 8b 05 d2 50 20 00 	mov    0x2050d2(%rip),%rax        # 607220 <rootTree>
  40214e:	ba 00 20 00 00       	mov    $0x2000,%edx
  402153:	be 00 00 00 00       	mov    $0x0,%esi
  402158:	48 89 c7             	mov    %rax,%rdi
  40215b:	e8 50 f2 ff ff       	callq  4013b0 <memset@plt>
  402160:	b8 e8 1f 00 00       	mov    $0x1fe8,%eax
  402165:	48 8b 15 b4 50 20 00 	mov    0x2050b4(%rip),%rdx        # 607220 <rootTree>
  40216c:	48 8d 4a 10          	lea    0x10(%rdx),%rcx
  402170:	48 89 c2             	mov    %rax,%rdx
  402173:	be ff 00 00 00       	mov    $0xff,%esi
  402178:	48 89 cf             	mov    %rcx,%rdi
  40217b:	e8 30 f2 ff ff       	callq  4013b0 <memset@plt>
  402180:	48 8b 05 99 50 20 00 	mov    0x205099(%rip),%rax        # 607220 <rootTree>
  402187:	48 8d 4d f0          	lea    -0x10(%rbp),%rcx
  40218b:	ba 10 00 00 00       	mov    $0x10,%edx
  402190:	48 89 ce             	mov    %rcx,%rsi
  402193:	48 89 c7             	mov    %rax,%rdi
  402196:	e8 e5 f4 ff ff       	callq  401680 <memcpy@plt>
  40219b:	bf 00 20 00 00       	mov    $0x2000,%edi
  4021a0:	e8 8b f2 ff ff       	callq  401430 <malloc@plt>
  4021a5:	48 89 05 7c 50 20 00 	mov    %rax,0x20507c(%rip)        # 607228 <currentNode>
  4021ac:	48 8b 05 75 50 20 00 	mov    0x205075(%rip),%rax        # 607228 <currentNode>
  4021b3:	ba 00 20 00 00       	mov    $0x2000,%edx
  4021b8:	be 00 00 00 00       	mov    $0x0,%esi
  4021bd:	48 89 c7             	mov    %rax,%rdi
  4021c0:	e8 eb f1 ff ff       	callq  4013b0 <memset@plt>
  4021c5:	48 8b 0d 54 50 20 00 	mov    0x205054(%rip),%rcx        # 607220 <rootTree>
  4021cc:	48 8b 05 55 50 20 00 	mov    0x205055(%rip),%rax        # 607228 <currentNode>
  4021d3:	ba 00 20 00 00       	mov    $0x2000,%edx
  4021d8:	48 89 ce             	mov    %rcx,%rsi
  4021db:	48 89 c7             	mov    %rax,%rdi
  4021de:	e8 9d f4 ff ff       	callq  401680 <memcpy@plt>
  4021e3:	48 8b 05 36 50 20 00 	mov    0x205036(%rip),%rax        # 607220 <rootTree>
  4021ea:	8b 40 08             	mov    0x8(%rax),%eax
  4021ed:	89 05 41 50 20 00    	mov    %eax,0x205041(%rip)        # 607234 <currentNodeNum>
  4021f3:	c7 05 43 70 20 00 00 	movl   $0x0,0x207043(%rip)        # 609240 <currentBlockNum>
  4021fa:	00 00 00 
  4021fd:	c7 05 3d 70 20 00 01 	movl   $0x1,0x20703d(%rip)        # 609244 <currentBlockCount>
  402204:	00 00 00 
  402207:	b8 00 00 00 00       	mov    $0x0,%eax
  40220c:	c9                   	leaveq 
  40220d:	c3                   	retq   

000000000040220e <_Z6openDBPKc>:
  40220e:	55                   	push   %rbp
  40220f:	48 89 e5             	mov    %rsp,%rbp
  402212:	48 83 ec 20          	sub    $0x20,%rsp
  402216:	48 89 7d e8          	mov    %rdi,-0x18(%rbp)
  40221a:	c7 45 f4 00 00 00 00 	movl   $0x0,-0xc(%rbp)
  402221:	48 8b 45 e8          	mov    -0x18(%rbp),%rax
  402225:	48 89 c7             	mov    %rax,%rdi
  402228:	e8 a3 f2 ff ff       	callq  4014d0 <strlen@plt>
  40222d:	89 45 f4             	mov    %eax,-0xc(%rbp)
  402230:	8b 45 f4             	mov    -0xc(%rbp),%eax
  402233:	83 c0 06             	add    $0x6,%eax
  402236:	48 98                	cltq   
  402238:	48 89 c7             	mov    %rax,%rdi
  40223b:	e8 f0 f1 ff ff       	callq  401430 <malloc@plt>
  402240:	48 89 45 f8          	mov    %rax,-0x8(%rbp)
  402244:	8b 45 f4             	mov    -0xc(%rbp),%eax
  402247:	83 c0 06             	add    $0x6,%eax
  40224a:	48 63 d0             	movslq %eax,%rdx
  40224d:	48 8b 45 f8          	mov    -0x8(%rbp),%rax
  402251:	be 00 00 00 00       	mov    $0x0,%esi
  402256:	48 89 c7             	mov    %rax,%rdi
  402259:	e8 52 f1 ff ff       	callq  4013b0 <memset@plt>
  40225e:	8b 45 f4             	mov    -0xc(%rbp),%eax
  402261:	48 63 d0             	movslq %eax,%rdx
  402264:	48 8b 4d e8          	mov    -0x18(%rbp),%rcx
  402268:	48 8b 45 f8          	mov    -0x8(%rbp),%rax
  40226c:	48 89 ce             	mov    %rcx,%rsi
  40226f:	48 89 c7             	mov    %rax,%rdi
  402272:	e8 09 f4 ff ff       	callq  401680 <memcpy@plt>
  402277:	8b 45 f4             	mov    -0xc(%rbp),%eax
  40227a:	48 63 d0             	movslq %eax,%rdx
  40227d:	48 8b 45 f8          	mov    -0x8(%rbp),%rax
  402281:	48 01 d0             	add    %rdx,%rax
  402284:	ba 04 00 00 00       	mov    $0x4,%edx
  402289:	be f0 4f 40 00       	mov    $0x404ff0,%esi
  40228e:	48 89 c7             	mov    %rax,%rdi
  402291:	e8 ea f3 ff ff       	callq  401680 <memcpy@plt>
  402296:	48 8b 45 f8          	mov    -0x8(%rbp),%rax
  40229a:	be f5 4f 40 00       	mov    $0x404ff5,%esi
  40229f:	48 89 c7             	mov    %rax,%rdi
  4022a2:	e8 99 f1 ff ff       	callq  401440 <fopen@plt>
  4022a7:	48 89 05 4a 4f 20 00 	mov    %rax,0x204f4a(%rip)        # 6071f8 <datFile>
  4022ae:	8b 45 f4             	mov    -0xc(%rbp),%eax
  4022b1:	48 63 d0             	movslq %eax,%rdx
  4022b4:	48 8b 45 f8          	mov    -0x8(%rbp),%rax
  4022b8:	48 01 d0             	add    %rdx,%rax
  4022bb:	ba 05 00 00 00       	mov    $0x5,%edx
  4022c0:	be 00 00 00 00       	mov    $0x0,%esi
  4022c5:	48 89 c7             	mov    %rax,%rdi
  4022c8:	e8 e3 f0 ff ff       	callq  4013b0 <memset@plt>
  4022cd:	8b 45 f4             	mov    -0xc(%rbp),%eax
  4022d0:	48 63 d0             	movslq %eax,%rdx
  4022d3:	48 8b 45 f8          	mov    -0x8(%rbp),%rax
  4022d7:	48 01 d0             	add    %rdx,%rax
  4022da:	ba 05 00 00 00       	mov    $0x5,%edx
  4022df:	be f9 4f 40 00       	mov    $0x404ff9,%esi
  4022e4:	48 89 c7             	mov    %rax,%rdi
  4022e7:	e8 94 f3 ff ff       	callq  401680 <memcpy@plt>
  4022ec:	48 8b 45 f8          	mov    -0x8(%rbp),%rax
  4022f0:	be f5 4f 40 00       	mov    $0x404ff5,%esi
  4022f5:	48 89 c7             	mov    %rax,%rdi
  4022f8:	e8 43 f1 ff ff       	callq  401440 <fopen@plt>
  4022fd:	48 89 05 e4 4e 20 00 	mov    %rax,0x204ee4(%rip)        # 6071e8 <hashFile>
  402304:	8b 45 f4             	mov    -0xc(%rbp),%eax
  402307:	48 63 d0             	movslq %eax,%rdx
  40230a:	48 8b 45 f8          	mov    -0x8(%rbp),%rax
  40230e:	48 01 d0             	add    %rdx,%rax
  402311:	ba 05 00 00 00       	mov    $0x5,%edx
  402316:	be 00 00 00 00       	mov    $0x0,%esi
  40231b:	48 89 c7             	mov    %rax,%rdi
  40231e:	e8 8d f0 ff ff       	callq  4013b0 <memset@plt>
  402323:	8b 45 f4             	mov    -0xc(%rbp),%eax
  402326:	48 63 d0             	movslq %eax,%rdx
  402329:	48 8b 45 f8          	mov    -0x8(%rbp),%rax
  40232d:	48 01 d0             	add    %rdx,%rax
  402330:	ba 04 00 00 00       	mov    $0x4,%edx
  402335:	be ff 4f 40 00       	mov    $0x404fff,%esi
  40233a:	48 89 c7             	mov    %rax,%rdi
  40233d:	e8 3e f3 ff ff       	callq  401680 <memcpy@plt>
  402342:	48 8b 45 f8          	mov    -0x8(%rbp),%rax
  402346:	be f5 4f 40 00       	mov    $0x404ff5,%esi
  40234b:	48 89 c7             	mov    %rax,%rdi
  40234e:	e8 ed f0 ff ff       	callq  401440 <fopen@plt>
  402353:	48 89 05 96 4e 20 00 	mov    %rax,0x204e96(%rip)        # 6071f0 <idxFile>
  40235a:	48 8b 45 f8          	mov    -0x8(%rbp),%rax
  40235e:	48 89 c7             	mov    %rax,%rdi
  402361:	e8 5a f1 ff ff       	callq  4014c0 <free@plt>
  402366:	e8 ee fc ff ff       	callq  402059 <_Z12initDataBasev>
  40236b:	b8 01 00 00 00       	mov    $0x1,%eax
  402370:	c9                   	leaveq 
  402371:	c3                   	retq   

0000000000402372 <_Z10insertData4Dataj>:
  402372:	55                   	push   %rbp
  402373:	48 89 e5             	mov    %rsp,%rbp
  402376:	48 83 ec 30          	sub    $0x30,%rsp
  40237a:	89 7d dc             	mov    %edi,-0x24(%rbp)
  40237d:	8b 05 bd 6e 20 00    	mov    0x206ebd(%rip),%eax        # 609240 <currentBlockNum>
  402383:	89 45 e8             	mov    %eax,-0x18(%rbp)
  402386:	48 c7 45 f0 48 72 60 	movq   $0x607248,-0x10(%rbp)
  40238d:	00 
  40238e:	8b 45 e8             	mov    -0x18(%rbp),%eax
  402391:	89 c7                	mov    %eax,%edi
  402393:	e8 d1 00 00 00       	callq  402469 <_Z11checkInsertj>
  402398:	89 45 ec             	mov    %eax,-0x14(%rbp)
  40239b:	48 c7 45 f8 40 72 60 	movq   $0x607240,-0x8(%rbp)
  4023a2:	00 
  4023a3:	48 8b 45 f8          	mov    -0x8(%rbp),%rax
  4023a7:	8b 00                	mov    (%rax),%eax
  4023a9:	8d 50 01             	lea    0x1(%rax),%edx
  4023ac:	48 8b 45 f8          	mov    -0x8(%rbp),%rax
  4023b0:	89 10                	mov    %edx,(%rax)
  4023b2:	8b 45 ec             	mov    -0x14(%rbp),%eax
  4023b5:	48 98                	cltq   
  4023b7:	48 8d 14 85 00 00 00 	lea    0x0(,%rax,4),%rdx
  4023be:	00 
  4023bf:	48 8b 45 f0          	mov    -0x10(%rbp),%rax
  4023c3:	48 01 c2             	add    %rax,%rdx
  4023c6:	8b 45 dc             	mov    -0x24(%rbp),%eax
  4023c9:	89 02                	mov    %eax,(%rdx)
  4023cb:	8b 45 ec             	mov    -0x14(%rbp),%eax
  4023ce:	83 c0 01             	add    $0x1,%eax
  4023d1:	48 63 d0             	movslq %eax,%rdx
  4023d4:	48 89 d0             	mov    %rdx,%rax
  4023d7:	48 c1 e0 02          	shl    $0x2,%rax
  4023db:	48 01 d0             	add    %rdx,%rax
  4023de:	48 c1 e0 03          	shl    $0x3,%rax
  4023e2:	ba 00 20 00 00       	mov    $0x2000,%edx
  4023e7:	48 29 c2             	sub    %rax,%rdx
  4023ea:	48 89 d0             	mov    %rdx,%rax
  4023ed:	48 05 40 72 60 00    	add    $0x607240,%rax
  4023f3:	48 8b 55 10          	mov    0x10(%rbp),%rdx
  4023f7:	48 89 10             	mov    %rdx,(%rax)
  4023fa:	48 8b 55 18          	mov    0x18(%rbp),%rdx
  4023fe:	48 89 50 08          	mov    %rdx,0x8(%rax)
  402402:	48 8b 55 20          	mov    0x20(%rbp),%rdx
  402406:	48 89 50 10          	mov    %rdx,0x10(%rax)
  40240a:	48 8b 55 28          	mov    0x28(%rbp),%rdx
  40240e:	48 89 50 18          	mov    %rdx,0x18(%rax)
  402412:	48 8b 55 30          	mov    0x30(%rbp),%rdx
  402416:	48 89 50 20          	mov    %rdx,0x20(%rax)
  40241a:	8b 05 20 6e 20 00    	mov    0x206e20(%rip),%eax        # 609240 <currentBlockNum>
  402420:	c9                   	leaveq 
  402421:	c3                   	retq   

0000000000402422 <_Z12getHashIndexj>:
  402422:	55                   	push   %rbp
  402423:	48 89 e5             	mov    %rsp,%rbp
  402426:	89 7d ec             	mov    %edi,-0x14(%rbp)
  402429:	c7 45 f4 00 00 00 00 	movl   $0x0,-0xc(%rbp)
  402430:	8b 45 ec             	mov    -0x14(%rbp),%eax
  402433:	89 45 f8             	mov    %eax,-0x8(%rbp)
  402436:	c7 45 fc 00 00 00 00 	movl   $0x0,-0x4(%rbp)
  40243d:	c7 45 fc 00 00 00 00 	movl   $0x0,-0x4(%rbp)
  402444:	eb 13                	jmp    402459 <_Z12getHashIndexj+0x37>
  402446:	d1 65 f4             	shll   -0xc(%rbp)
  402449:	8b 45 f8             	mov    -0x8(%rbp),%eax
  40244c:	83 e0 01             	and    $0x1,%eax
  40244f:	01 45 f4             	add    %eax,-0xc(%rbp)
  402452:	d1 6d f8             	shrl   -0x8(%rbp)
  402455:	83 45 fc 01          	addl   $0x1,-0x4(%rbp)
  402459:	8b 05 b1 4d 20 00    	mov    0x204db1(%rip),%eax        # 607210 <hashPrefix>
  40245f:	39 45 fc             	cmp    %eax,-0x4(%rbp)
  402462:	7c e2                	jl     402446 <_Z12getHashIndexj+0x24>
  402464:	8b 45 f4             	mov    -0xc(%rbp),%eax
  402467:	5d                   	pop    %rbp
  402468:	c3                   	retq   

0000000000402469 <_Z11checkInsertj>:
  402469:	55                   	push   %rbp
  40246a:	48 89 e5             	mov    %rsp,%rbp
  40246d:	48 83 ec 30          	sub    $0x30,%rsp
  402471:	89 7d dc             	mov    %edi,-0x24(%rbp)
  402474:	c7 45 e8 00 00 00 00 	movl   $0x0,-0x18(%rbp)
  40247b:	48 c7 45 f0 40 72 60 	movq   $0x607240,-0x10(%rbp)
  402482:	00 
  402483:	48 8b 45 f0          	mov    -0x10(%rbp),%rax
  402487:	8b 00                	mov    (%rax),%eax
  402489:	89 45 ec             	mov    %eax,-0x14(%rbp)
  40248c:	81 7d ec a9 00 00 00 	cmpl   $0xa9,-0x14(%rbp)
  402493:	0f 8e c3 00 00 00    	jle    40255c <_Z11checkInsertj+0xf3>
  402499:	8b 05 a1 6d 20 00    	mov    0x206da1(%rip),%eax        # 609240 <currentBlockNum>
  40249f:	c1 e0 0d             	shl    $0xd,%eax
  4024a2:	89 c1                	mov    %eax,%ecx
  4024a4:	48 8b 05 4d 4d 20 00 	mov    0x204d4d(%rip),%rax        # 6071f8 <datFile>
  4024ab:	ba 00 00 00 00       	mov    $0x0,%edx
  4024b0:	48 89 ce             	mov    %rcx,%rsi
  4024b3:	48 89 c7             	mov    %rax,%rdi
  4024b6:	e8 35 ef ff ff       	callq  4013f0 <fseek@plt>
  4024bb:	48 8b 05 36 4d 20 00 	mov    0x204d36(%rip),%rax        # 6071f8 <datFile>
  4024c2:	48 89 c1             	mov    %rax,%rcx
  4024c5:	ba 00 20 00 00       	mov    $0x2000,%edx
  4024ca:	be 01 00 00 00       	mov    $0x1,%esi
  4024cf:	bf 40 72 60 00       	mov    $0x607240,%edi
  4024d4:	e8 47 f1 ff ff       	callq  401620 <fwrite@plt>
  4024d9:	8b 05 65 6d 20 00    	mov    0x206d65(%rip),%eax        # 609244 <currentBlockCount>
  4024df:	89 05 5b 6d 20 00    	mov    %eax,0x206d5b(%rip)        # 609240 <currentBlockNum>
  4024e5:	8b 05 55 6d 20 00    	mov    0x206d55(%rip),%eax        # 609240 <currentBlockNum>
  4024eb:	c1 e0 0d             	shl    $0xd,%eax
  4024ee:	89 c1                	mov    %eax,%ecx
  4024f0:	48 8b 05 01 4d 20 00 	mov    0x204d01(%rip),%rax        # 6071f8 <datFile>
  4024f7:	ba 00 00 00 00       	mov    $0x0,%edx
  4024fc:	48 89 ce             	mov    %rcx,%rsi
  4024ff:	48 89 c7             	mov    %rax,%rdi
  402502:	e8 e9 ee ff ff       	callq  4013f0 <fseek@plt>
  402507:	ba 00 20 00 00       	mov    $0x2000,%edx
  40250c:	be 00 00 00 00       	mov    $0x0,%esi
  402511:	bf 40 72 60 00       	mov    $0x607240,%edi
  402516:	e8 95 ee ff ff       	callq  4013b0 <memset@plt>
  40251b:	b8 a8 02 00 00       	mov    $0x2a8,%eax
  402520:	48 8b 55 f0          	mov    -0x10(%rbp),%rdx
  402524:	48 8d 4a 08          	lea    0x8(%rdx),%rcx
  402528:	48 89 c2             	mov    %rax,%rdx
  40252b:	be ff 00 00 00       	mov    $0xff,%esi
  402530:	48 89 cf             	mov    %rcx,%rdi
  402533:	e8 78 ee ff ff       	callq  4013b0 <memset@plt>
  402538:	48 c7 45 f8 40 72 60 	movq   $0x607240,-0x8(%rbp)
  40253f:	00 
  402540:	8b 15 fa 6c 20 00    	mov    0x206cfa(%rip),%edx        # 609240 <currentBlockNum>
  402546:	48 8b 45 f8          	mov    -0x8(%rbp),%rax
  40254a:	89 50 04             	mov    %edx,0x4(%rax)
  40254d:	8b 05 f1 6c 20 00    	mov    0x206cf1(%rip),%eax        # 609244 <currentBlockCount>
  402553:	83 c0 01             	add    $0x1,%eax
  402556:	89 05 e8 6c 20 00    	mov    %eax,0x206ce8(%rip)        # 609244 <currentBlockCount>
  40255c:	c7 45 e8 00 00 00 00 	movl   $0x0,-0x18(%rbp)
  402563:	eb 24                	jmp    402589 <_Z11checkInsertj+0x120>
  402565:	8b 45 e8             	mov    -0x18(%rbp),%eax
  402568:	83 c0 02             	add    $0x2,%eax
  40256b:	89 c0                	mov    %eax,%eax
  40256d:	48 8d 14 85 00 00 00 	lea    0x0(,%rax,4),%rdx
  402574:	00 
  402575:	48 8b 45 f0          	mov    -0x10(%rbp),%rax
  402579:	48 01 d0             	add    %rdx,%rax
  40257c:	8b 00                	mov    (%rax),%eax
  40257e:	83 f8 ff             	cmp    $0xffffffff,%eax
  402581:	75 02                	jne    402585 <_Z11checkInsertj+0x11c>
  402583:	eb 0d                	jmp    402592 <_Z11checkInsertj+0x129>
  402585:	83 45 e8 01          	addl   $0x1,-0x18(%rbp)
  402589:	81 7d e8 a9 00 00 00 	cmpl   $0xa9,-0x18(%rbp)
  402590:	76 d3                	jbe    402565 <_Z11checkInsertj+0xfc>
  402592:	8b 45 e8             	mov    -0x18(%rbp),%eax
  402595:	c9                   	leaveq 
  402596:	c3                   	retq   

0000000000402597 <_Z11branchBlockjj>:
  402597:	55                   	push   %rbp
  402598:	48 89 e5             	mov    %rsp,%rbp
  40259b:	89 7d fc             	mov    %edi,-0x4(%rbp)
  40259e:	89 75 f8             	mov    %esi,-0x8(%rbp)
  4025a1:	b8 00 00 00 00       	mov    $0x0,%eax
  4025a6:	5d                   	pop    %rbp
  4025a7:	c3                   	retq   

00000000004025a8 <_Z22findBlockNumFromBucketP6Bucketj>:
  4025a8:	55                   	push   %rbp
  4025a9:	48 89 e5             	mov    %rsp,%rbp
  4025ac:	48 89 7d e8          	mov    %rdi,-0x18(%rbp)
  4025b0:	89 75 e4             	mov    %esi,-0x1c(%rbp)
  4025b3:	8b 45 e4             	mov    -0x1c(%rbp),%eax
  4025b6:	89 45 f4             	mov    %eax,-0xc(%rbp)
  4025b9:	48 8b 45 e8          	mov    -0x18(%rbp),%rax
  4025bd:	48 83 c0 10          	add    $0x10,%rax
  4025c1:	48 89 45 f8          	mov    %rax,-0x8(%rbp)
  4025c5:	c7 45 f0 00 00 00 00 	movl   $0x0,-0x10(%rbp)
  4025cc:	eb 38                	jmp    402606 <_Z22findBlockNumFromBucketP6Bucketj+0x5e>
  4025ce:	8b 45 f0             	mov    -0x10(%rbp),%eax
  4025d1:	48 98                	cltq   
  4025d3:	48 8d 14 c5 00 00 00 	lea    0x0(,%rax,8),%rdx
  4025da:	00 
  4025db:	48 8b 45 f8          	mov    -0x8(%rbp),%rax
  4025df:	48 01 d0             	add    %rdx,%rax
  4025e2:	8b 00                	mov    (%rax),%eax
  4025e4:	3b 45 f4             	cmp    -0xc(%rbp),%eax
  4025e7:	75 19                	jne    402602 <_Z22findBlockNumFromBucketP6Bucketj+0x5a>
  4025e9:	8b 45 f0             	mov    -0x10(%rbp),%eax
  4025ec:	48 98                	cltq   
  4025ee:	48 8d 14 c5 00 00 00 	lea    0x0(,%rax,8),%rdx
  4025f5:	00 
  4025f6:	48 8b 45 f8          	mov    -0x8(%rbp),%rax
  4025fa:	48 01 d0             	add    %rdx,%rax
  4025fd:	8b 40 04             	mov    0x4(%rax),%eax
  402600:	eb 12                	jmp    402614 <_Z22findBlockNumFromBucketP6Bucketj+0x6c>
  402602:	83 45 f0 01          	addl   $0x1,-0x10(%rbp)
  402606:	81 7d f0 fd 03 00 00 	cmpl   $0x3fd,-0x10(%rbp)
  40260d:	7e bf                	jle    4025ce <_Z22findBlockNumFromBucketP6Bucketj+0x26>
  40260f:	b8 ff ff ff ff       	mov    $0xffffffff,%eax
  402614:	5d                   	pop    %rbp
  402615:	c3                   	retq   

0000000000402616 <_Z19getBlockNumFromHashj>:
  402616:	55                   	push   %rbp
  402617:	48 89 e5             	mov    %rsp,%rbp
  40261a:	48 83 ec 20          	sub    $0x20,%rsp
  40261e:	89 7d ec             	mov    %edi,-0x14(%rbp)
  402621:	8b 45 ec             	mov    -0x14(%rbp),%eax
  402624:	89 c7                	mov    %eax,%edi
  402626:	e8 f7 fd ff ff       	callq  402422 <_Z12getHashIndexj>
  40262b:	89 45 f0             	mov    %eax,-0x10(%rbp)
  40262e:	48 8b 05 cb 4b 20 00 	mov    0x204bcb(%rip),%rax        # 607200 <hashTable>
  402635:	8b 55 f0             	mov    -0x10(%rbp),%edx
  402638:	48 c1 e2 03          	shl    $0x3,%rdx
  40263c:	48 01 d0             	add    %rdx,%rax
  40263f:	48 8b 00             	mov    (%rax),%rax
  402642:	48 89 45 f8          	mov    %rax,-0x8(%rbp)
  402646:	8b 55 ec             	mov    -0x14(%rbp),%edx
  402649:	48 8b 45 f8          	mov    -0x8(%rbp),%rax
  40264d:	89 d6                	mov    %edx,%esi
  40264f:	48 89 c7             	mov    %rax,%rdi
  402652:	e8 51 ff ff ff       	callq  4025a8 <_Z22findBlockNumFromBucketP6Bucketj>
  402657:	89 45 f4             	mov    %eax,-0xc(%rbp)
  40265a:	83 7d f4 ff          	cmpl   $0xffffffff,-0xc(%rbp)
  40265e:	75 0a                	jne    40266a <_Z19getBlockNumFromHashj+0x54>
  402660:	bf 04 50 40 00       	mov    $0x405004,%edi
  402665:	e8 66 ed ff ff       	callq  4013d0 <puts@plt>
  40266a:	8b 45 f4             	mov    -0xc(%rbp),%eax
  40266d:	c9                   	leaveq 
  40266e:	c3                   	retq   

000000000040266f <_Z12insertBucketjj>:
  40266f:	55                   	push   %rbp
  402670:	48 89 e5             	mov    %rsp,%rbp
  402673:	48 83 ec 40          	sub    $0x40,%rsp
  402677:	89 7d cc             	mov    %edi,-0x34(%rbp)
  40267a:	89 75 c8             	mov    %esi,-0x38(%rbp)
  40267d:	8b 45 c8             	mov    -0x38(%rbp),%eax
  402680:	89 45 d8             	mov    %eax,-0x28(%rbp)
  402683:	8b 45 d8             	mov    -0x28(%rbp),%eax
  402686:	89 c7                	mov    %eax,%edi
  402688:	e8 95 fd ff ff       	callq  402422 <_Z12getHashIndexj>
  40268d:	89 45 dc             	mov    %eax,-0x24(%rbp)
  402690:	48 8b 05 69 4b 20 00 	mov    0x204b69(%rip),%rax        # 607200 <hashTable>
  402697:	8b 55 dc             	mov    -0x24(%rbp),%edx
  40269a:	48 c1 e2 03          	shl    $0x3,%rdx
  40269e:	48 01 d0             	add    %rdx,%rax
  4026a1:	48 8b 00             	mov    (%rax),%rax
  4026a4:	48 89 45 e8          	mov    %rax,-0x18(%rbp)
  4026a8:	48 8b 45 e8          	mov    -0x18(%rbp),%rax
  4026ac:	48 89 45 f0          	mov    %rax,-0x10(%rbp)
  4026b0:	48 8b 45 e8          	mov    -0x18(%rbp),%rax
  4026b4:	48 83 c0 10          	add    $0x10,%rax
  4026b8:	48 89 45 f8          	mov    %rax,-0x8(%rbp)
  4026bc:	48 8b 45 f0          	mov    -0x10(%rbp),%rax
  4026c0:	8b 00                	mov    (%rax),%eax
  4026c2:	3d fd 03 00 00       	cmp    $0x3fd,%eax
  4026c7:	76 1b                	jbe    4026e4 <_Z12insertBucketjj+0x75>
  4026c9:	8b 45 dc             	mov    -0x24(%rbp),%eax
  4026cc:	89 c7                	mov    %eax,%edi
  4026ce:	e8 5d 00 00 00       	callq  402730 <_Z12branchBucketj>
  4026d3:	8b 55 c8             	mov    -0x38(%rbp),%edx
  4026d6:	8b 45 cc             	mov    -0x34(%rbp),%eax
  4026d9:	89 d6                	mov    %edx,%esi
  4026db:	89 c7                	mov    %eax,%edi
  4026dd:	e8 8d ff ff ff       	callq  40266f <_Z12insertBucketjj>
  4026e2:	eb 47                	jmp    40272b <_Z12insertBucketjj+0xbc>
  4026e4:	8b 45 c8             	mov    -0x38(%rbp),%eax
  4026e7:	89 45 e0             	mov    %eax,-0x20(%rbp)
  4026ea:	8b 45 cc             	mov    -0x34(%rbp),%eax
  4026ed:	89 45 e4             	mov    %eax,-0x1c(%rbp)
  4026f0:	48 8b 45 f0          	mov    -0x10(%rbp),%rax
  4026f4:	8b 00                	mov    (%rax),%eax
  4026f6:	89 c0                	mov    %eax,%eax
  4026f8:	48 8d 14 c5 00 00 00 	lea    0x0(,%rax,8),%rdx
  4026ff:	00 
  402700:	48 8b 45 f8          	mov    -0x8(%rbp),%rax
  402704:	48 8d 0c 02          	lea    (%rdx,%rax,1),%rcx
  402708:	48 8d 45 e0          	lea    -0x20(%rbp),%rax
  40270c:	ba 08 00 00 00       	mov    $0x8,%edx
  402711:	48 89 c6             	mov    %rax,%rsi
  402714:	48 89 cf             	mov    %rcx,%rdi
  402717:	e8 64 ef ff ff       	callq  401680 <memcpy@plt>
  40271c:	48 8b 45 f0          	mov    -0x10(%rbp),%rax
  402720:	8b 00                	mov    (%rax),%eax
  402722:	8d 50 01             	lea    0x1(%rax),%edx
  402725:	48 8b 45 f0          	mov    -0x10(%rbp),%rax
  402729:	89 10                	mov    %edx,(%rax)
  40272b:	8b 45 cc             	mov    -0x34(%rbp),%eax
  40272e:	c9                   	leaveq 
  40272f:	c3                   	retq   

0000000000402730 <_Z12branchBucketj>:
  402730:	55                   	push   %rbp
  402731:	48 89 e5             	mov    %rsp,%rbp
  402734:	48 83 c4 80          	add    $0xffffffffffffff80,%rsp
  402738:	89 7d 8c             	mov    %edi,-0x74(%rbp)
  40273b:	c7 45 ac 00 00 00 00 	movl   $0x0,-0x54(%rbp)
  402742:	8b 05 c8 4a 20 00    	mov    0x204ac8(%rip),%eax        # 607210 <hashPrefix>
  402748:	ba 01 00 00 00       	mov    $0x1,%edx
  40274d:	89 c1                	mov    %eax,%ecx
  40274f:	d3 e2                	shl    %cl,%edx
  402751:	89 d0                	mov    %edx,%eax
  402753:	89 45 9c             	mov    %eax,-0x64(%rbp)
  402756:	8b 45 9c             	mov    -0x64(%rbp),%eax
  402759:	88 45 97             	mov    %al,-0x69(%rbp)
  40275c:	48 8b 05 9d 4a 20 00 	mov    0x204a9d(%rip),%rax        # 607200 <hashTable>
  402763:	48 89 45 b8          	mov    %rax,-0x48(%rbp)
  402767:	48 8b 05 92 4a 20 00 	mov    0x204a92(%rip),%rax        # 607200 <hashTable>
  40276e:	8b 55 8c             	mov    -0x74(%rbp),%edx
  402771:	48 c1 e2 03          	shl    $0x3,%rdx
  402775:	48 01 d0             	add    %rdx,%rax
  402778:	48 8b 00             	mov    (%rax),%rax
  40277b:	8b 40 04             	mov    0x4(%rax),%eax
  40277e:	83 f8 01             	cmp    $0x1,%eax
  402781:	0f 85 ae 00 00 00    	jne    402835 <_Z12branchBucketj+0x105>
  402787:	8b 05 83 4a 20 00    	mov    0x204a83(%rip),%eax        # 607210 <hashPrefix>
  40278d:	83 c0 01             	add    $0x1,%eax
  402790:	89 05 7a 4a 20 00    	mov    %eax,0x204a7a(%rip)        # 607210 <hashPrefix>
  402796:	8b 05 74 4a 20 00    	mov    0x204a74(%rip),%eax        # 607210 <hashPrefix>
  40279c:	ba 01 00 00 00       	mov    $0x1,%edx
  4027a1:	89 c1                	mov    %eax,%ecx
  4027a3:	d3 e2                	shl    %cl,%edx
  4027a5:	89 d0                	mov    %edx,%eax
  4027a7:	89 45 9c             	mov    %eax,-0x64(%rbp)
  4027aa:	8b 45 9c             	mov    -0x64(%rbp),%eax
  4027ad:	48 98                	cltq   
  4027af:	48 c1 e0 03          	shl    $0x3,%rax
  4027b3:	48 89 c7             	mov    %rax,%rdi
  4027b6:	e8 75 ec ff ff       	callq  401430 <malloc@plt>
  4027bb:	48 89 45 b8          	mov    %rax,-0x48(%rbp)
  4027bf:	c7 45 98 00 00 00 00 	movl   $0x0,-0x68(%rbp)
  4027c6:	eb 63                	jmp    40282b <_Z12branchBucketj+0xfb>
  4027c8:	48 8b 15 31 4a 20 00 	mov    0x204a31(%rip),%rdx        # 607200 <hashTable>
  4027cf:	8b 45 98             	mov    -0x68(%rbp),%eax
  4027d2:	89 c1                	mov    %eax,%ecx
  4027d4:	c1 e9 1f             	shr    $0x1f,%ecx
  4027d7:	01 c8                	add    %ecx,%eax
  4027d9:	d1 f8                	sar    %eax
  4027db:	48 98                	cltq   
  4027dd:	48 c1 e0 03          	shl    $0x3,%rax
  4027e1:	48 8d 0c 02          	lea    (%rdx,%rax,1),%rcx
  4027e5:	8b 45 98             	mov    -0x68(%rbp),%eax
  4027e8:	48 98                	cltq   
  4027ea:	48 8d 14 c5 00 00 00 	lea    0x0(,%rax,8),%rdx
  4027f1:	00 
  4027f2:	48 8b 45 b8          	mov    -0x48(%rbp),%rax
  4027f6:	48 01 d0             	add    %rdx,%rax
  4027f9:	ba 08 00 00 00       	mov    $0x8,%edx
  4027fe:	48 89 ce             	mov    %rcx,%rsi
  402801:	48 89 c7             	mov    %rax,%rdi
  402804:	e8 77 ee ff ff       	callq  401680 <memcpy@plt>
  402809:	8b 45 98             	mov    -0x68(%rbp),%eax
  40280c:	48 98                	cltq   
  40280e:	48 8d 14 c5 00 00 00 	lea    0x0(,%rax,8),%rdx
  402815:	00 
  402816:	48 8b 45 b8          	mov    -0x48(%rbp),%rax
  40281a:	48 01 d0             	add    %rdx,%rax
  40281d:	48 8b 00             	mov    (%rax),%rax
  402820:	c7 40 04 00 00 00 00 	movl   $0x0,0x4(%rax)
  402827:	83 45 98 01          	addl   $0x1,-0x68(%rbp)
  40282b:	8b 45 98             	mov    -0x68(%rbp),%eax
  40282e:	3b 45 9c             	cmp    -0x64(%rbp),%eax
  402831:	7c 95                	jl     4027c8 <_Z12branchBucketj+0x98>
  402833:	eb 6b                	jmp    4028a0 <_Z12branchBucketj+0x170>
  402835:	c7 45 98 00 00 00 00 	movl   $0x0,-0x68(%rbp)
  40283c:	eb 22                	jmp    402860 <_Z12branchBucketj+0x130>
  40283e:	8b 45 98             	mov    -0x68(%rbp),%eax
  402841:	48 98                	cltq   
  402843:	48 8d 14 c5 00 00 00 	lea    0x0(,%rax,8),%rdx
  40284a:	00 
  40284b:	48 8b 45 b8          	mov    -0x48(%rbp),%rax
  40284f:	48 01 d0             	add    %rdx,%rax
  402852:	48 8b 00             	mov    (%rax),%rax
  402855:	c7 40 04 00 00 00 00 	movl   $0x0,0x4(%rax)
  40285c:	83 45 98 01          	addl   $0x1,-0x68(%rbp)
  402860:	8b 45 98             	mov    -0x68(%rbp),%eax
  402863:	3b 45 9c             	cmp    -0x64(%rbp),%eax
  402866:	7c d6                	jl     40283e <_Z12branchBucketj+0x10e>
  402868:	8b 45 9c             	mov    -0x64(%rbp),%eax
  40286b:	48 98                	cltq   
  40286d:	48 c1 e0 03          	shl    $0x3,%rax
  402871:	48 89 c7             	mov    %rax,%rdi
  402874:	e8 b7 eb ff ff       	callq  401430 <malloc@plt>
  402879:	48 89 45 b8          	mov    %rax,-0x48(%rbp)
  40287d:	8b 45 9c             	mov    -0x64(%rbp),%eax
  402880:	48 98                	cltq   
  402882:	48 8d 14 c5 00 00 00 	lea    0x0(,%rax,8),%rdx
  402889:	00 
  40288a:	48 8b 0d 6f 49 20 00 	mov    0x20496f(%rip),%rcx        # 607200 <hashTable>
  402891:	48 8b 45 b8          	mov    -0x48(%rbp),%rax
  402895:	48 89 ce             	mov    %rcx,%rsi
  402898:	48 89 c7             	mov    %rax,%rdi
  40289b:	e8 e0 ed ff ff       	callq  401680 <memcpy@plt>
  4028a0:	48 8b 05 59 49 20 00 	mov    0x204959(%rip),%rax        # 607200 <hashTable>
  4028a7:	48 89 c7             	mov    %rax,%rdi
  4028aa:	e8 11 ec ff ff       	callq  4014c0 <free@plt>
  4028af:	bf 00 20 00 00       	mov    $0x2000,%edi
  4028b4:	e8 77 eb ff ff       	callq  401430 <malloc@plt>
  4028b9:	48 89 45 c0          	mov    %rax,-0x40(%rbp)
  4028bd:	48 8b 45 c0          	mov    -0x40(%rbp),%rax
  4028c1:	ba 00 20 00 00       	mov    $0x2000,%edx
  4028c6:	be 00 00 00 00       	mov    $0x0,%esi
  4028cb:	48 89 c7             	mov    %rax,%rdi
  4028ce:	e8 dd ea ff ff       	callq  4013b0 <memset@plt>
  4028d3:	48 8b 45 c0          	mov    -0x40(%rbp),%rax
  4028d7:	48 8b 50 08          	mov    0x8(%rax),%rdx
  4028db:	48 8b 00             	mov    (%rax),%rax
  4028de:	48 89 45 f0          	mov    %rax,-0x10(%rbp)
  4028e2:	48 89 55 f8          	mov    %rdx,-0x8(%rbp)
  4028e6:	48 8b 45 c0          	mov    -0x40(%rbp),%rax
  4028ea:	48 83 c0 10          	add    $0x10,%rax
  4028ee:	48 89 45 c8          	mov    %rax,-0x38(%rbp)
  4028f2:	0f be 45 97          	movsbl -0x69(%rbp),%eax
  4028f6:	3b 45 9c             	cmp    -0x64(%rbp),%eax
  4028f9:	74 0a                	je     402905 <_Z12branchBucketj+0x1d5>
  4028fb:	8b 45 8c             	mov    -0x74(%rbp),%eax
  4028fe:	01 c0                	add    %eax,%eax
  402900:	89 45 a0             	mov    %eax,-0x60(%rbp)
  402903:	eb 09                	jmp    40290e <_Z12branchBucketj+0x1de>
  402905:	8b 45 8c             	mov    -0x74(%rbp),%eax
  402908:	83 e0 fe             	and    $0xfffffffe,%eax
  40290b:	89 45 a0             	mov    %eax,-0x60(%rbp)
  40290e:	8b 45 a0             	mov    -0x60(%rbp),%eax
  402911:	48 8d 14 c5 00 00 00 	lea    0x0(,%rax,8),%rdx
  402918:	00 
  402919:	48 8b 45 b8          	mov    -0x48(%rbp),%rax
  40291d:	48 01 d0             	add    %rdx,%rax
  402920:	48 8b 00             	mov    (%rax),%rax
  402923:	48 89 45 d0          	mov    %rax,-0x30(%rbp)
  402927:	48 8b 45 d0          	mov    -0x30(%rbp),%rax
  40292b:	48 8b 50 08          	mov    0x8(%rax),%rdx
  40292f:	48 8b 00             	mov    (%rax),%rax
  402932:	48 89 45 e0          	mov    %rax,-0x20(%rbp)
  402936:	48 89 55 e8          	mov    %rdx,-0x18(%rbp)
  40293a:	48 8b 45 d0          	mov    -0x30(%rbp),%rax
  40293e:	48 83 c0 10          	add    $0x10,%rax
  402942:	48 89 45 d8          	mov    %rax,-0x28(%rbp)
  402946:	8b 45 e0             	mov    -0x20(%rbp),%eax
  402949:	89 45 b0             	mov    %eax,-0x50(%rbp)
  40294c:	8b 45 a0             	mov    -0x60(%rbp),%eax
  40294f:	89 45 a4             	mov    %eax,-0x5c(%rbp)
  402952:	8b 45 a0             	mov    -0x60(%rbp),%eax
  402955:	89 45 a8             	mov    %eax,-0x58(%rbp)
  402958:	c7 45 98 00 00 00 00 	movl   $0x0,-0x68(%rbp)
  40295f:	e9 b9 00 00 00       	jmpq   402a1d <_Z12branchBucketj+0x2ed>
  402964:	8b 45 98             	mov    -0x68(%rbp),%eax
  402967:	48 98                	cltq   
  402969:	48 8d 14 c5 00 00 00 	lea    0x0(,%rax,8),%rdx
  402970:	00 
  402971:	48 8b 45 d8          	mov    -0x28(%rbp),%rax
  402975:	48 01 d0             	add    %rdx,%rax
  402978:	8b 00                	mov    (%rax),%eax
  40297a:	89 c7                	mov    %eax,%edi
  40297c:	e8 a1 fa ff ff       	callq  402422 <_Z12getHashIndexj>
  402981:	89 45 b4             	mov    %eax,-0x4c(%rbp)
  402984:	8b 45 b4             	mov    -0x4c(%rbp),%eax
  402987:	3b 45 a0             	cmp    -0x60(%rbp),%eax
  40298a:	74 71                	je     4029fd <_Z12branchBucketj+0x2cd>
  40298c:	8b 45 98             	mov    -0x68(%rbp),%eax
  40298f:	48 98                	cltq   
  402991:	48 8d 14 c5 00 00 00 	lea    0x0(,%rax,8),%rdx
  402998:	00 
  402999:	48 8b 45 d8          	mov    -0x28(%rbp),%rax
  40299d:	48 8d 0c 02          	lea    (%rdx,%rax,1),%rcx
  4029a1:	8b 45 f0             	mov    -0x10(%rbp),%eax
  4029a4:	89 c0                	mov    %eax,%eax
  4029a6:	48 8d 14 c5 00 00 00 	lea    0x0(,%rax,8),%rdx
  4029ad:	00 
  4029ae:	48 8b 45 c8          	mov    -0x38(%rbp),%rax
  4029b2:	48 01 d0             	add    %rdx,%rax
  4029b5:	ba 08 00 00 00       	mov    $0x8,%edx
  4029ba:	48 89 ce             	mov    %rcx,%rsi
  4029bd:	48 89 c7             	mov    %rax,%rdi
  4029c0:	e8 bb ec ff ff       	callq  401680 <memcpy@plt>
  4029c5:	8b 45 98             	mov    -0x68(%rbp),%eax
  4029c8:	48 98                	cltq   
  4029ca:	48 8d 14 c5 00 00 00 	lea    0x0(,%rax,8),%rdx
  4029d1:	00 
  4029d2:	48 8b 45 d8          	mov    -0x28(%rbp),%rax
  4029d6:	48 01 d0             	add    %rdx,%rax
  4029d9:	ba 08 00 00 00       	mov    $0x8,%edx
  4029de:	be 00 00 00 00       	mov    $0x0,%esi
  4029e3:	48 89 c7             	mov    %rax,%rdi
  4029e6:	e8 c5 e9 ff ff       	callq  4013b0 <memset@plt>
  4029eb:	8b 45 f0             	mov    -0x10(%rbp),%eax
  4029ee:	83 c0 01             	add    $0x1,%eax
  4029f1:	89 45 f0             	mov    %eax,-0x10(%rbp)
  4029f4:	8b 45 e0             	mov    -0x20(%rbp),%eax
  4029f7:	83 e8 01             	sub    $0x1,%eax
  4029fa:	89 45 e0             	mov    %eax,-0x20(%rbp)
  4029fd:	8b 45 b4             	mov    -0x4c(%rbp),%eax
  402a00:	3b 45 a4             	cmp    -0x5c(%rbp),%eax
  402a03:	76 06                	jbe    402a0b <_Z12branchBucketj+0x2db>
  402a05:	8b 45 b4             	mov    -0x4c(%rbp),%eax
  402a08:	89 45 a4             	mov    %eax,-0x5c(%rbp)
  402a0b:	8b 45 b4             	mov    -0x4c(%rbp),%eax
  402a0e:	3b 45 a8             	cmp    -0x58(%rbp),%eax
  402a11:	73 06                	jae    402a19 <_Z12branchBucketj+0x2e9>
  402a13:	8b 45 b4             	mov    -0x4c(%rbp),%eax
  402a16:	89 45 a8             	mov    %eax,-0x58(%rbp)
  402a19:	83 45 98 01          	addl   $0x1,-0x68(%rbp)
  402a1d:	8b 45 98             	mov    -0x68(%rbp),%eax
  402a20:	3b 45 b0             	cmp    -0x50(%rbp),%eax
  402a23:	0f 82 3b ff ff ff    	jb     402964 <_Z12branchBucketj+0x234>
  402a29:	48 8b 45 d8          	mov    -0x28(%rbp),%rax
  402a2d:	48 89 c7             	mov    %rax,%rdi
  402a30:	e8 71 01 00 00       	callq  402ba6 <_Z13packingBucketP10BucketData>
  402a35:	8b 45 a0             	mov    -0x60(%rbp),%eax
  402a38:	83 c0 01             	add    $0x1,%eax
  402a3b:	89 45 98             	mov    %eax,-0x68(%rbp)
  402a3e:	eb 1f                	jmp    402a5f <_Z12branchBucketj+0x32f>
  402a40:	8b 45 98             	mov    -0x68(%rbp),%eax
  402a43:	48 98                	cltq   
  402a45:	48 8d 14 c5 00 00 00 	lea    0x0(,%rax,8),%rdx
  402a4c:	00 
  402a4d:	48 8b 45 b8          	mov    -0x48(%rbp),%rax
  402a51:	48 01 c2             	add    %rax,%rdx
  402a54:	48 8b 45 c0          	mov    -0x40(%rbp),%rax
  402a58:	48 89 02             	mov    %rax,(%rdx)
  402a5b:	83 45 98 01          	addl   $0x1,-0x68(%rbp)
  402a5f:	8b 45 98             	mov    -0x68(%rbp),%eax
  402a62:	8b 55 a4             	mov    -0x5c(%rbp),%edx
  402a65:	83 c2 01             	add    $0x1,%edx
  402a68:	39 d0                	cmp    %edx,%eax
  402a6a:	72 d4                	jb     402a40 <_Z12branchBucketj+0x310>
  402a6c:	8b 45 a0             	mov    -0x60(%rbp),%eax
  402a6f:	83 c0 01             	add    $0x1,%eax
  402a72:	89 45 f8             	mov    %eax,-0x8(%rbp)
  402a75:	8b 45 a4             	mov    -0x5c(%rbp),%eax
  402a78:	89 45 fc             	mov    %eax,-0x4(%rbp)
  402a7b:	8b 45 a8             	mov    -0x58(%rbp),%eax
  402a7e:	89 45 e8             	mov    %eax,-0x18(%rbp)
  402a81:	8b 45 a0             	mov    -0x60(%rbp),%eax
  402a84:	89 45 ec             	mov    %eax,-0x14(%rbp)
  402a87:	48 8b 45 c0          	mov    -0x40(%rbp),%rax
  402a8b:	48 8d 4d f0          	lea    -0x10(%rbp),%rcx
  402a8f:	ba 10 00 00 00       	mov    $0x10,%edx
  402a94:	48 89 ce             	mov    %rcx,%rsi
  402a97:	48 89 c7             	mov    %rax,%rdi
  402a9a:	e8 e1 eb ff ff       	callq  401680 <memcpy@plt>
  402a9f:	48 8b 45 d0          	mov    -0x30(%rbp),%rax
  402aa3:	48 8d 4d e0          	lea    -0x20(%rbp),%rcx
  402aa7:	ba 10 00 00 00       	mov    $0x10,%edx
  402aac:	48 89 ce             	mov    %rcx,%rsi
  402aaf:	48 89 c7             	mov    %rax,%rdi
  402ab2:	e8 c9 eb ff ff       	callq  401680 <memcpy@plt>
  402ab7:	c7 45 98 00 00 00 00 	movl   $0x0,-0x68(%rbp)
  402abe:	eb 24                	jmp    402ae4 <_Z12branchBucketj+0x3b4>
  402ac0:	8b 45 98             	mov    -0x68(%rbp),%eax
  402ac3:	48 98                	cltq   
  402ac5:	48 8d 14 c5 00 00 00 	lea    0x0(,%rax,8),%rdx
  402acc:	00 
  402acd:	48 8b 45 b8          	mov    -0x48(%rbp),%rax
  402ad1:	48 01 d0             	add    %rdx,%rax
  402ad4:	48 8b 00             	mov    (%rax),%rax
  402ad7:	8b 50 04             	mov    0x4(%rax),%edx
  402ada:	83 c2 01             	add    $0x1,%edx
  402add:	89 50 04             	mov    %edx,0x4(%rax)
  402ae0:	83 45 98 01          	addl   $0x1,-0x68(%rbp)
  402ae4:	8b 45 98             	mov    -0x68(%rbp),%eax
  402ae7:	3b 45 9c             	cmp    -0x64(%rbp),%eax
  402aea:	7c d4                	jl     402ac0 <_Z12branchBucketj+0x390>
  402aec:	8b 45 a4             	mov    -0x5c(%rbp),%eax
  402aef:	83 c0 01             	add    $0x1,%eax
  402af2:	89 45 98             	mov    %eax,-0x68(%rbp)
  402af5:	eb 64                	jmp    402b5b <_Z12branchBucketj+0x42b>
  402af7:	8b 45 98             	mov    -0x68(%rbp),%eax
  402afa:	48 98                	cltq   
  402afc:	48 8d 14 c5 00 00 00 	lea    0x0(,%rax,8),%rdx
  402b03:	00 
  402b04:	48 8b 45 b8          	mov    -0x48(%rbp),%rax
  402b08:	48 01 d0             	add    %rdx,%rax
  402b0b:	48 8b 00             	mov    (%rax),%rax
  402b0e:	8b 55 98             	mov    -0x68(%rbp),%edx
  402b11:	89 50 08             	mov    %edx,0x8(%rax)
  402b14:	8b 45 98             	mov    -0x68(%rbp),%eax
  402b17:	48 98                	cltq   
  402b19:	48 8d 14 c5 00 00 00 	lea    0x0(,%rax,8),%rdx
  402b20:	00 
  402b21:	48 8b 45 b8          	mov    -0x48(%rbp),%rax
  402b25:	48 01 d0             	add    %rdx,%rax
  402b28:	48 8b 00             	mov    (%rax),%rax
  402b2b:	8b 55 98             	mov    -0x68(%rbp),%edx
  402b2e:	48 63 d2             	movslq %edx,%rdx
  402b31:	48 8d 0c d5 00 00 00 	lea    0x0(,%rdx,8),%rcx
  402b38:	00 
  402b39:	48 8b 55 b8          	mov    -0x48(%rbp),%rdx
  402b3d:	48 01 ca             	add    %rcx,%rdx
  402b40:	48 8b 12             	mov    (%rdx),%rdx
  402b43:	8b 4a 04             	mov    0x4(%rdx),%ecx
  402b46:	8b 55 98             	mov    -0x68(%rbp),%edx
  402b49:	01 ca                	add    %ecx,%edx
  402b4b:	83 ea 01             	sub    $0x1,%edx
  402b4e:	89 50 0c             	mov    %edx,0xc(%rax)
  402b51:	8b 40 0c             	mov    0xc(%rax),%eax
  402b54:	89 45 98             	mov    %eax,-0x68(%rbp)
  402b57:	83 45 98 01          	addl   $0x1,-0x68(%rbp)
  402b5b:	8b 45 98             	mov    -0x68(%rbp),%eax
  402b5e:	3b 45 9c             	cmp    -0x64(%rbp),%eax
  402b61:	7c 94                	jl     402af7 <_Z12branchBucketj+0x3c7>
  402b63:	8b 45 9c             	mov    -0x64(%rbp),%eax
  402b66:	48 98                	cltq   
  402b68:	48 c1 e0 03          	shl    $0x3,%rax
  402b6c:	48 89 c7             	mov    %rax,%rdi
  402b6f:	e8 bc e8 ff ff       	callq  401430 <malloc@plt>
  402b74:	48 89 05 85 46 20 00 	mov    %rax,0x204685(%rip)        # 607200 <hashTable>
  402b7b:	8b 45 9c             	mov    -0x64(%rbp),%eax
  402b7e:	48 98                	cltq   
  402b80:	48 8d 14 c5 00 00 00 	lea    0x0(,%rax,8),%rdx
  402b87:	00 
  402b88:	48 8b 05 71 46 20 00 	mov    0x204671(%rip),%rax        # 607200 <hashTable>
  402b8f:	48 8b 4d b8          	mov    -0x48(%rbp),%rcx
  402b93:	48 89 ce             	mov    %rcx,%rsi
  402b96:	48 89 c7             	mov    %rax,%rdi
  402b99:	e8 e2 ea ff ff       	callq  401680 <memcpy@plt>
  402b9e:	8b 05 9c 66 20 00    	mov    0x20669c(%rip),%eax        # 609240 <currentBlockNum>
  402ba4:	c9                   	leaveq 
  402ba5:	c3                   	retq   

0000000000402ba6 <_Z13packingBucketP10BucketData>:
  402ba6:	55                   	push   %rbp
  402ba7:	48 89 e5             	mov    %rsp,%rbp
  402baa:	48 83 ec 40          	sub    $0x40,%rsp
  402bae:	48 89 7d c8          	mov    %rdi,-0x38(%rbp)
  402bb2:	c7 45 d8 00 00 00 00 	movl   $0x0,-0x28(%rbp)
  402bb9:	c7 45 dc 00 00 00 00 	movl   $0x0,-0x24(%rbp)
  402bc0:	c7 45 e0 00 00 00 00 	movl   $0x0,-0x20(%rbp)
  402bc7:	c7 45 ec 00 00 00 00 	movl   $0x0,-0x14(%rbp)
  402bce:	c7 45 e4 00 00 00 00 	movl   $0x0,-0x1c(%rbp)
  402bd5:	c7 45 e8 00 00 00 00 	movl   $0x0,-0x18(%rbp)
  402bdc:	48 8b 45 c8          	mov    -0x38(%rbp),%rax
  402be0:	48 89 45 f0          	mov    %rax,-0x10(%rbp)
  402be4:	48 8b 45 c8          	mov    -0x38(%rbp),%rax
  402be8:	48 89 45 f8          	mov    %rax,-0x8(%rbp)
  402bec:	c7 45 d8 00 00 00 00 	movl   $0x0,-0x28(%rbp)
  402bf3:	e9 41 01 00 00       	jmpq   402d39 <_Z13packingBucketP10BucketData+0x193>
  402bf8:	48 8b 45 f0          	mov    -0x10(%rbp),%rax
  402bfc:	8b 00                	mov    (%rax),%eax
  402bfe:	85 c0                	test   %eax,%eax
  402c00:	0f 85 2a 01 00 00    	jne    402d30 <_Z13packingBucketP10BucketData+0x18a>
  402c06:	83 7d e8 00          	cmpl   $0x0,-0x18(%rbp)
  402c0a:	75 06                	jne    402c12 <_Z13packingBucketP10BucketData+0x6c>
  402c0c:	8b 45 d8             	mov    -0x28(%rbp),%eax
  402c0f:	89 45 e8             	mov    %eax,-0x18(%rbp)
  402c12:	8b 45 d8             	mov    -0x28(%rbp),%eax
  402c15:	83 c0 01             	add    $0x1,%eax
  402c18:	89 45 dc             	mov    %eax,-0x24(%rbp)
  402c1b:	e9 d7 00 00 00       	jmpq   402cf7 <_Z13packingBucketP10BucketData+0x151>
  402c20:	8b 45 dc             	mov    -0x24(%rbp),%eax
  402c23:	48 98                	cltq   
  402c25:	48 8d 14 c5 00 00 00 	lea    0x0(,%rax,8),%rdx
  402c2c:	00 
  402c2d:	48 8b 45 f8          	mov    -0x8(%rbp),%rax
  402c31:	48 01 d0             	add    %rdx,%rax
  402c34:	8b 00                	mov    (%rax),%eax
  402c36:	85 c0                	test   %eax,%eax
  402c38:	0f 84 b5 00 00 00    	je     402cf3 <_Z13packingBucketP10BucketData+0x14d>
  402c3e:	8b 45 dc             	mov    -0x24(%rbp),%eax
  402c41:	89 45 ec             	mov    %eax,-0x14(%rbp)
  402c44:	c7 45 e4 00 00 00 00 	movl   $0x0,-0x1c(%rbp)
  402c4b:	8b 45 dc             	mov    -0x24(%rbp),%eax
  402c4e:	83 c0 01             	add    $0x1,%eax
  402c51:	89 45 e0             	mov    %eax,-0x20(%rbp)
  402c54:	eb 24                	jmp    402c7a <_Z13packingBucketP10BucketData+0xd4>
  402c56:	83 45 e4 01          	addl   $0x1,-0x1c(%rbp)
  402c5a:	8b 45 e0             	mov    -0x20(%rbp),%eax
  402c5d:	48 98                	cltq   
  402c5f:	48 8d 14 c5 00 00 00 	lea    0x0(,%rax,8),%rdx
  402c66:	00 
  402c67:	48 8b 45 f8          	mov    -0x8(%rbp),%rax
  402c6b:	48 01 d0             	add    %rdx,%rax
  402c6e:	8b 00                	mov    (%rax),%eax
  402c70:	85 c0                	test   %eax,%eax
  402c72:	75 02                	jne    402c76 <_Z13packingBucketP10BucketData+0xd0>
  402c74:	eb 0d                	jmp    402c83 <_Z13packingBucketP10BucketData+0xdd>
  402c76:	83 45 e0 01          	addl   $0x1,-0x20(%rbp)
  402c7a:	81 7d e0 fd 03 00 00 	cmpl   $0x3fd,-0x20(%rbp)
  402c81:	7e d3                	jle    402c56 <_Z13packingBucketP10BucketData+0xb0>
  402c83:	8b 45 e4             	mov    -0x1c(%rbp),%eax
  402c86:	48 98                	cltq   
  402c88:	48 8d 14 c5 00 00 00 	lea    0x0(,%rax,8),%rdx
  402c8f:	00 
  402c90:	8b 45 ec             	mov    -0x14(%rbp),%eax
  402c93:	48 98                	cltq   
  402c95:	48 8d 0c c5 00 00 00 	lea    0x0(,%rax,8),%rcx
  402c9c:	00 
  402c9d:	48 8b 45 f8          	mov    -0x8(%rbp),%rax
  402ca1:	48 01 c1             	add    %rax,%rcx
  402ca4:	8b 45 e8             	mov    -0x18(%rbp),%eax
  402ca7:	48 98                	cltq   
  402ca9:	48 8d 34 c5 00 00 00 	lea    0x0(,%rax,8),%rsi
  402cb0:	00 
  402cb1:	48 8b 45 f8          	mov    -0x8(%rbp),%rax
  402cb5:	48 01 f0             	add    %rsi,%rax
  402cb8:	48 89 ce             	mov    %rcx,%rsi
  402cbb:	48 89 c7             	mov    %rax,%rdi
  402cbe:	e8 bd e9 ff ff       	callq  401680 <memcpy@plt>
  402cc3:	8b 45 e4             	mov    -0x1c(%rbp),%eax
  402cc6:	48 98                	cltq   
  402cc8:	48 8d 14 c5 00 00 00 	lea    0x0(,%rax,8),%rdx
  402ccf:	00 
  402cd0:	8b 45 ec             	mov    -0x14(%rbp),%eax
  402cd3:	48 98                	cltq   
  402cd5:	48 8d 0c c5 00 00 00 	lea    0x0(,%rax,8),%rcx
  402cdc:	00 
  402cdd:	48 8b 45 f8          	mov    -0x8(%rbp),%rax
  402ce1:	48 01 c8             	add    %rcx,%rax
  402ce4:	be 00 00 00 00       	mov    $0x0,%esi
  402ce9:	48 89 c7             	mov    %rax,%rdi
  402cec:	e8 bf e6 ff ff       	callq  4013b0 <memset@plt>
  402cf1:	eb 11                	jmp    402d04 <_Z13packingBucketP10BucketData+0x15e>
  402cf3:	83 45 dc 01          	addl   $0x1,-0x24(%rbp)
  402cf7:	81 7d dc fd 03 00 00 	cmpl   $0x3fd,-0x24(%rbp)
  402cfe:	0f 8e 1c ff ff ff    	jle    402c20 <_Z13packingBucketP10BucketData+0x7a>
  402d04:	8b 45 e4             	mov    -0x1c(%rbp),%eax
  402d07:	8b 55 dc             	mov    -0x24(%rbp),%edx
  402d0a:	01 d0                	add    %edx,%eax
  402d0c:	83 e8 01             	sub    $0x1,%eax
  402d0f:	89 45 d8             	mov    %eax,-0x28(%rbp)
  402d12:	8b 45 d8             	mov    -0x28(%rbp),%eax
  402d15:	48 98                	cltq   
  402d17:	48 8d 14 c5 00 00 00 	lea    0x0(,%rax,8),%rdx
  402d1e:	00 
  402d1f:	48 8b 45 f8          	mov    -0x8(%rbp),%rax
  402d23:	48 01 d0             	add    %rdx,%rax
  402d26:	48 89 45 f0          	mov    %rax,-0x10(%rbp)
  402d2a:	8b 45 e4             	mov    -0x1c(%rbp),%eax
  402d2d:	01 45 e8             	add    %eax,-0x18(%rbp)
  402d30:	83 45 d8 01          	addl   $0x1,-0x28(%rbp)
  402d34:	48 83 45 f0 08       	addq   $0x8,-0x10(%rbp)
  402d39:	81 7d d8 fd 03 00 00 	cmpl   $0x3fd,-0x28(%rbp)
  402d40:	0f 8e b2 fe ff ff    	jle    402bf8 <_Z13packingBucketP10BucketData+0x52>
  402d46:	c9                   	leaveq 
  402d47:	c3                   	retq   

0000000000402d48 <_Z10swapBucketjj>:
  402d48:	55                   	push   %rbp
  402d49:	48 89 e5             	mov    %rsp,%rbp
  402d4c:	48 83 ec 30          	sub    $0x30,%rsp
  402d50:	89 7d dc             	mov    %edi,-0x24(%rbp)
  402d53:	89 75 d8             	mov    %esi,-0x28(%rbp)
  402d56:	48 8b 05 ab 44 20 00 	mov    0x2044ab(%rip),%rax        # 607208 <currentBucket>
  402d5d:	48 8b 50 08          	mov    0x8(%rax),%rdx
  402d61:	48 8b 00             	mov    (%rax),%rax
  402d64:	48 89 45 f0          	mov    %rax,-0x10(%rbp)
  402d68:	48 89 55 f8          	mov    %rdx,-0x8(%rbp)
  402d6c:	8b 45 fc             	mov    -0x4(%rbp),%eax
  402d6f:	89 45 e8             	mov    %eax,-0x18(%rbp)
  402d72:	8b 45 f8             	mov    -0x8(%rbp),%eax
  402d75:	89 45 ec             	mov    %eax,-0x14(%rbp)
  402d78:	8b 45 d8             	mov    -0x28(%rbp),%eax
  402d7b:	3b 45 e8             	cmp    -0x18(%rbp),%eax
  402d7e:	77 1e                	ja     402d9e <_Z10swapBucketjj+0x56>
  402d80:	8b 45 ec             	mov    -0x14(%rbp),%eax
  402d83:	3b 45 d8             	cmp    -0x28(%rbp),%eax
  402d86:	77 16                	ja     402d9e <_Z10swapBucketjj+0x56>
  402d88:	bf 1d 50 40 00       	mov    $0x40501d,%edi
  402d8d:	e8 3e e6 ff ff       	callq  4013d0 <puts@plt>
  402d92:	48 8b 05 6f 44 20 00 	mov    0x20446f(%rip),%rax        # 607208 <currentBucket>
  402d99:	e9 54 01 00 00       	jmpq   402ef2 <_Z10swapBucketjj+0x1aa>
  402d9e:	8b 45 d8             	mov    -0x28(%rbp),%eax
  402da1:	3b 45 ec             	cmp    -0x14(%rbp),%eax
  402da4:	0f 83 b3 00 00 00    	jae    402e5d <_Z10swapBucketjj+0x115>
  402daa:	bf 2b 50 40 00       	mov    $0x40502b,%edi
  402daf:	e8 1c e6 ff ff       	callq  4013d0 <puts@plt>
  402db4:	8b 45 dc             	mov    -0x24(%rbp),%eax
  402db7:	c1 e0 0d             	shl    $0xd,%eax
  402dba:	89 c1                	mov    %eax,%ecx
  402dbc:	48 8b 05 25 44 20 00 	mov    0x204425(%rip),%rax        # 6071e8 <hashFile>
  402dc3:	ba 00 00 00 00       	mov    $0x0,%edx
  402dc8:	48 89 ce             	mov    %rcx,%rsi
  402dcb:	48 89 c7             	mov    %rax,%rdi
  402dce:	e8 1d e6 ff ff       	callq  4013f0 <fseek@plt>
  402dd3:	48 8b 15 0e 44 20 00 	mov    0x20440e(%rip),%rdx        # 6071e8 <hashFile>
  402dda:	48 8b 05 27 44 20 00 	mov    0x204427(%rip),%rax        # 607208 <currentBucket>
  402de1:	48 89 d1             	mov    %rdx,%rcx
  402de4:	ba 01 00 00 00       	mov    $0x1,%edx
  402de9:	be 00 20 00 00       	mov    $0x2000,%esi
  402dee:	48 89 c7             	mov    %rax,%rdi
  402df1:	e8 2a e8 ff ff       	callq  401620 <fwrite@plt>
  402df6:	8b 45 d8             	mov    -0x28(%rbp),%eax
  402df9:	89 05 15 44 20 00    	mov    %eax,0x204415(%rip)        # 607214 <currentBucketNum>
  402dff:	8b 05 3b 64 20 00    	mov    0x20643b(%rip),%eax        # 609240 <currentBlockNum>
  402e05:	c1 e0 0d             	shl    $0xd,%eax
  402e08:	89 c1                	mov    %eax,%ecx
  402e0a:	48 8b 05 d7 43 20 00 	mov    0x2043d7(%rip),%rax        # 6071e8 <hashFile>
  402e11:	ba 00 00 00 00       	mov    $0x0,%edx
  402e16:	48 89 ce             	mov    %rcx,%rsi
  402e19:	48 89 c7             	mov    %rax,%rdi
  402e1c:	e8 cf e5 ff ff       	callq  4013f0 <fseek@plt>
  402e21:	ba 00 20 00 00       	mov    $0x2000,%edx
  402e26:	be 00 00 00 00       	mov    $0x0,%esi
  402e2b:	bf 40 72 60 00       	mov    $0x607240,%edi
  402e30:	e8 7b e5 ff ff       	callq  4013b0 <memset@plt>
  402e35:	48 8b 15 ac 43 20 00 	mov    0x2043ac(%rip),%rdx        # 6071e8 <hashFile>
  402e3c:	48 8b 05 c5 43 20 00 	mov    0x2043c5(%rip),%rax        # 607208 <currentBucket>
  402e43:	48 89 d1             	mov    %rdx,%rcx
  402e46:	ba 01 00 00 00       	mov    $0x1,%edx
  402e4b:	be 00 20 00 00       	mov    $0x2000,%esi
  402e50:	48 89 c7             	mov    %rax,%rdi
  402e53:	e8 08 e7 ff ff       	callq  401560 <fread@plt>
  402e58:	e9 8e 00 00 00       	jmpq   402eeb <_Z10swapBucketjj+0x1a3>
  402e5d:	bf 36 50 40 00       	mov    $0x405036,%edi
  402e62:	e8 69 e5 ff ff       	callq  4013d0 <puts@plt>
  402e67:	8b 45 dc             	mov    -0x24(%rbp),%eax
  402e6a:	c1 e0 0d             	shl    $0xd,%eax
  402e6d:	89 c1                	mov    %eax,%ecx
  402e6f:	48 8b 05 72 43 20 00 	mov    0x204372(%rip),%rax        # 6071e8 <hashFile>
  402e76:	ba 00 00 00 00       	mov    $0x0,%edx
  402e7b:	48 89 ce             	mov    %rcx,%rsi
  402e7e:	48 89 c7             	mov    %rax,%rdi
  402e81:	e8 6a e5 ff ff       	callq  4013f0 <fseek@plt>
  402e86:	48 8b 15 5b 43 20 00 	mov    0x20435b(%rip),%rdx        # 6071e8 <hashFile>
  402e8d:	48 8b 05 74 43 20 00 	mov    0x204374(%rip),%rax        # 607208 <currentBucket>
  402e94:	48 89 d1             	mov    %rdx,%rcx
  402e97:	ba 01 00 00 00       	mov    $0x1,%edx
  402e9c:	be 00 20 00 00       	mov    $0x2000,%esi
  402ea1:	48 89 c7             	mov    %rax,%rdi
  402ea4:	e8 77 e7 ff ff       	callq  401620 <fwrite@plt>
  402ea9:	8b 45 d8             	mov    -0x28(%rbp),%eax
  402eac:	89 05 62 43 20 00    	mov    %eax,0x204362(%rip)        # 607214 <currentBucketNum>
  402eb2:	bf 00 20 00 00       	mov    $0x2000,%edi
  402eb7:	e8 74 e5 ff ff       	callq  401430 <malloc@plt>
  402ebc:	48 89 05 45 43 20 00 	mov    %rax,0x204345(%rip)        # 607208 <currentBucket>
  402ec3:	48 8b 05 3e 43 20 00 	mov    0x20433e(%rip),%rax        # 607208 <currentBucket>
  402eca:	ba 00 20 00 00       	mov    $0x2000,%edx
  402ecf:	be 00 00 00 00       	mov    $0x0,%esi
  402ed4:	48 89 c7             	mov    %rax,%rdi
  402ed7:	e8 d4 e4 ff ff       	callq  4013b0 <memset@plt>
  402edc:	8b 05 36 43 20 00    	mov    0x204336(%rip),%eax        # 607218 <currentBucketCount>
  402ee2:	83 c0 01             	add    $0x1,%eax
  402ee5:	89 05 2d 43 20 00    	mov    %eax,0x20432d(%rip)        # 607218 <currentBucketCount>
  402eeb:	48 8b 05 16 43 20 00 	mov    0x204316(%rip),%rax        # 607208 <currentBucket>
  402ef2:	c9                   	leaveq 
  402ef3:	c3                   	retq   

0000000000402ef4 <_Z9newBucketP6Bucket>:
  402ef4:	55                   	push   %rbp
  402ef5:	48 89 e5             	mov    %rsp,%rbp
  402ef8:	48 83 ec 20          	sub    $0x20,%rsp
  402efc:	48 89 7d e8          	mov    %rdi,-0x18(%rbp)
  402f00:	bf 10 00 00 00       	mov    $0x10,%edi
  402f05:	e8 26 e5 ff ff       	callq  401430 <malloc@plt>
  402f0a:	48 89 45 f8          	mov    %rax,-0x8(%rbp)
  402f0e:	48 8b 45 f8          	mov    -0x8(%rbp),%rax
  402f12:	ba 10 00 00 00       	mov    $0x10,%edx
  402f17:	be 00 00 00 00       	mov    $0x0,%esi
  402f1c:	48 89 c7             	mov    %rax,%rdi
  402f1f:	e8 8c e4 ff ff       	callq  4013b0 <memset@plt>
  402f24:	8b 05 ea 42 20 00    	mov    0x2042ea(%rip),%eax        # 607214 <currentBucketNum>
  402f2a:	c1 e0 0d             	shl    $0xd,%eax
  402f2d:	89 c1                	mov    %eax,%ecx
  402f2f:	48 8b 05 b2 42 20 00 	mov    0x2042b2(%rip),%rax        # 6071e8 <hashFile>
  402f36:	ba 00 00 00 00       	mov    $0x0,%edx
  402f3b:	48 89 ce             	mov    %rcx,%rsi
  402f3e:	48 89 c7             	mov    %rax,%rdi
  402f41:	e8 aa e4 ff ff       	callq  4013f0 <fseek@plt>
  402f46:	48 8b 15 9b 42 20 00 	mov    0x20429b(%rip),%rdx        # 6071e8 <hashFile>
  402f4d:	48 8b 45 e8          	mov    -0x18(%rbp),%rax
  402f51:	48 89 d1             	mov    %rdx,%rcx
  402f54:	ba 01 00 00 00       	mov    $0x1,%edx
  402f59:	be 00 20 00 00       	mov    $0x2000,%esi
  402f5e:	48 89 c7             	mov    %rax,%rdi
  402f61:	e8 ba e6 ff ff       	callq  401620 <fwrite@plt>
  402f66:	8b 05 a8 42 20 00    	mov    0x2042a8(%rip),%eax        # 607214 <currentBucketNum>
  402f6c:	83 c0 01             	add    $0x1,%eax
  402f6f:	89 05 9f 42 20 00    	mov    %eax,0x20429f(%rip)        # 607214 <currentBucketNum>
  402f75:	8b 15 99 42 20 00    	mov    0x204299(%rip),%edx        # 607214 <currentBucketNum>
  402f7b:	48 8b 45 f8          	mov    -0x8(%rbp),%rax
  402f7f:	89 50 08             	mov    %edx,0x8(%rax)
  402f82:	48 8b 45 f8          	mov    -0x8(%rbp),%rax
  402f86:	48 8b 55 e8          	mov    -0x18(%rbp),%rdx
  402f8a:	48 89 10             	mov    %rdx,(%rax)
  402f8d:	48 8b 45 f8          	mov    -0x8(%rbp),%rax
  402f91:	c9                   	leaveq 
  402f92:	c3                   	retq   

0000000000402f93 <_Z10insertHashPcjfS_>:
  402f93:	55                   	push   %rbp
  402f94:	48 89 e5             	mov    %rsp,%rbp
  402f97:	48 83 c4 80          	add    $0xffffffffffffff80,%rsp
  402f9b:	48 89 7d b8          	mov    %rdi,-0x48(%rbp)
  402f9f:	89 75 b4             	mov    %esi,-0x4c(%rbp)
  402fa2:	f3 0f 11 45 b0       	movss  %xmm0,-0x50(%rbp)
  402fa7:	48 89 55 a8          	mov    %rdx,-0x58(%rbp)
  402fab:	64 48 8b 04 25 28 00 	mov    %fs:0x28,%rax
  402fb2:	00 00 
  402fb4:	48 89 45 f8          	mov    %rax,-0x8(%rbp)
  402fb8:	31 c0                	xor    %eax,%eax
  402fba:	c7 45 c8 00 00 00 00 	movl   $0x0,-0x38(%rbp)
  402fc1:	8b 45 b4             	mov    -0x4c(%rbp),%eax
  402fc4:	89 c7                	mov    %eax,%edi
  402fc6:	e8 e2 e7 ff ff       	callq  4017ad <_Z6RJhashj>
  402fcb:	89 45 cc             	mov    %eax,-0x34(%rbp)
  402fce:	8b 45 b4             	mov    -0x4c(%rbp),%eax
  402fd1:	89 45 e4             	mov    %eax,-0x1c(%rbp)
  402fd4:	8b 45 b0             	mov    -0x50(%rbp),%eax
  402fd7:	89 45 e8             	mov    %eax,-0x18(%rbp)
  402fda:	48 8b 55 b8          	mov    -0x48(%rbp),%rdx
  402fde:	48 8d 45 d0          	lea    -0x30(%rbp),%rax
  402fe2:	48 89 d6             	mov    %rdx,%rsi
  402fe5:	48 89 c7             	mov    %rax,%rdi
  402fe8:	e8 a3 e5 ff ff       	callq  401590 <strcpy@plt>
  402fed:	48 8b 45 a8          	mov    -0x58(%rbp),%rax
  402ff1:	48 8d 55 d0          	lea    -0x30(%rbp),%rdx
  402ff5:	48 83 c2 1c          	add    $0x1c,%rdx
  402ff9:	48 89 c6             	mov    %rax,%rsi
  402ffc:	48 89 d7             	mov    %rdx,%rdi
  402fff:	e8 8c e5 ff ff       	callq  401590 <strcpy@plt>
  403004:	8b 45 cc             	mov    -0x34(%rbp),%eax
  403007:	48 8b 55 d0          	mov    -0x30(%rbp),%rdx
  40300b:	48 89 14 24          	mov    %rdx,(%rsp)
  40300f:	48 8b 55 d8          	mov    -0x28(%rbp),%rdx
  403013:	48 89 54 24 08       	mov    %rdx,0x8(%rsp)
  403018:	48 8b 55 e0          	mov    -0x20(%rbp),%rdx
  40301c:	48 89 54 24 10       	mov    %rdx,0x10(%rsp)
  403021:	48 8b 55 e8          	mov    -0x18(%rbp),%rdx
  403025:	48 89 54 24 18       	mov    %rdx,0x18(%rsp)
  40302a:	48 8b 55 f0          	mov    -0x10(%rbp),%rdx
  40302e:	48 89 54 24 20       	mov    %rdx,0x20(%rsp)
  403033:	89 c7                	mov    %eax,%edi
  403035:	e8 38 f3 ff ff       	callq  402372 <_Z10insertData4Dataj>
  40303a:	89 45 c8             	mov    %eax,-0x38(%rbp)
  40303d:	8b 55 cc             	mov    -0x34(%rbp),%edx
  403040:	8b 45 c8             	mov    -0x38(%rbp),%eax
  403043:	89 d6                	mov    %edx,%esi
  403045:	89 c7                	mov    %eax,%edi
  403047:	e8 23 f6 ff ff       	callq  40266f <_Z12insertBucketjj>
  40304c:	8b 45 cc             	mov    -0x34(%rbp),%eax
  40304f:	89 c7                	mov    %eax,%edi
  403051:	e8 c0 f5 ff ff       	callq  402616 <_Z19getBlockNumFromHashj>
  403056:	89 45 c8             	mov    %eax,-0x38(%rbp)
  403059:	8b 45 c8             	mov    -0x38(%rbp),%eax
  40305c:	48 8b 4d f8          	mov    -0x8(%rbp),%rcx
  403060:	64 48 33 0c 25 28 00 	xor    %fs:0x28,%rcx
  403067:	00 00 
  403069:	74 05                	je     403070 <_Z10insertHashPcjfS_+0xdd>
  40306b:	e8 00 e5 ff ff       	callq  401570 <__stack_chk_fail@plt>
  403070:	c9                   	leaveq 
  403071:	c3                   	retq   

0000000000403072 <_Z12insertRecordPcjfS_>:
  403072:	55                   	push   %rbp
  403073:	48 89 e5             	mov    %rsp,%rbp
  403076:	48 83 ec 30          	sub    $0x30,%rsp
  40307a:	48 89 7d e8          	mov    %rdi,-0x18(%rbp)
  40307e:	89 75 e4             	mov    %esi,-0x1c(%rbp)
  403081:	f3 0f 11 45 e0       	movss  %xmm0,-0x20(%rbp)
  403086:	48 89 55 d8          	mov    %rdx,-0x28(%rbp)
  40308a:	c7 45 fc 00 00 00 00 	movl   $0x0,-0x4(%rbp)
  403091:	48 8b 55 d8          	mov    -0x28(%rbp),%rdx
  403095:	8b 45 e0             	mov    -0x20(%rbp),%eax
  403098:	8b 75 e4             	mov    -0x1c(%rbp),%esi
  40309b:	48 8b 4d e8          	mov    -0x18(%rbp),%rcx
  40309f:	89 45 d4             	mov    %eax,-0x2c(%rbp)
  4030a2:	f3 0f 10 45 d4       	movss  -0x2c(%rbp),%xmm0
  4030a7:	48 89 cf             	mov    %rcx,%rdi
  4030aa:	e8 e4 fe ff ff       	callq  402f93 <_Z10insertHashPcjfS_>
  4030af:	89 45 fc             	mov    %eax,-0x4(%rbp)
  4030b2:	83 7d fc ff          	cmpl   $0xffffffff,-0x4(%rbp)
  4030b6:	0f 94 c0             	sete   %al
  4030b9:	84 c0                	test   %al,%al
  4030bb:	74 0a                	je     4030c7 <_Z12insertRecordPcjfS_+0x55>
  4030bd:	bf 41 50 40 00       	mov    $0x405041,%edi
  4030c2:	e8 09 e3 ff ff       	callq  4013d0 <puts@plt>
  4030c7:	48 8b 05 5a 41 20 00 	mov    0x20415a(%rip),%rax        # 607228 <currentNode>
  4030ce:	ba 00 20 00 00       	mov    $0x2000,%edx
  4030d3:	be 00 00 00 00       	mov    $0x0,%esi
  4030d8:	48 89 c7             	mov    %rax,%rdi
  4030db:	e8 d0 e2 ff ff       	callq  4013b0 <memset@plt>
  4030e0:	48 8b 05 41 41 20 00 	mov    0x204141(%rip),%rax        # 607228 <currentNode>
  4030e7:	48 89 c7             	mov    %rax,%rdi
  4030ea:	e8 d1 e3 ff ff       	callq  4014c0 <free@plt>
  4030ef:	bf 00 20 00 00       	mov    $0x2000,%edi
  4030f4:	e8 37 e3 ff ff       	callq  401430 <malloc@plt>
  4030f9:	48 89 05 28 41 20 00 	mov    %rax,0x204128(%rip)        # 607228 <currentNode>
  403100:	48 8b 0d 19 41 20 00 	mov    0x204119(%rip),%rcx        # 607220 <rootTree>
  403107:	48 8b 05 1a 41 20 00 	mov    0x20411a(%rip),%rax        # 607228 <currentNode>
  40310e:	ba 00 20 00 00       	mov    $0x2000,%edx
  403113:	48 89 ce             	mov    %rcx,%rsi
  403116:	48 89 c7             	mov    %rax,%rdi
  403119:	e8 62 e5 ff ff       	callq  401680 <memcpy@plt>
  40311e:	48 8b 05 fb 40 20 00 	mov    0x2040fb(%rip),%rax        # 607220 <rootTree>
  403125:	8b 40 08             	mov    0x8(%rax),%eax
  403128:	89 05 06 41 20 00    	mov    %eax,0x204106(%rip)        # 607234 <currentNodeNum>
  40312e:	8b 45 e0             	mov    -0x20(%rbp),%eax
  403131:	8b 55 fc             	mov    -0x4(%rbp),%edx
  403134:	be 00 00 00 00       	mov    $0x0,%esi
  403139:	89 45 d4             	mov    %eax,-0x2c(%rbp)
  40313c:	f3 0f 10 45 d4       	movss  -0x2c(%rbp),%xmm0
  403141:	89 d7                	mov    %edx,%edi
  403143:	e8 a4 00 00 00       	callq  4031ec <_Z10insertNodejfj>
  403148:	8b 45 fc             	mov    -0x4(%rbp),%eax
  40314b:	c9                   	leaveq 
  40314c:	c3                   	retq   

000000000040314d <_Z10outputTestv>:
  40314d:	55                   	push   %rbp
  40314e:	48 89 e5             	mov    %rsp,%rbp
  403151:	48 83 ec 40          	sub    $0x40,%rsp
  403155:	64 48 8b 04 25 28 00 	mov    %fs:0x28,%rax
  40315c:	00 00 
  40315e:	48 89 45 f8          	mov    %rax,-0x8(%rbp)
  403162:	31 c0                	xor    %eax,%eax
  403164:	48 c7 45 c8 40 72 60 	movq   $0x607240,-0x38(%rbp)
  40316b:	00 
  40316c:	48 8b 45 c8          	mov    -0x38(%rbp),%rax
  403170:	8b 00                	mov    (%rax),%eax
  403172:	89 45 c4             	mov    %eax,-0x3c(%rbp)
  403175:	c7 45 c0 00 00 00 00 	movl   $0x0,-0x40(%rbp)
  40317c:	eb 50                	jmp    4031ce <_Z10outputTestv+0x81>
  40317e:	8b 45 c0             	mov    -0x40(%rbp),%eax
  403181:	48 63 d0             	movslq %eax,%rdx
  403184:	48 89 d0             	mov    %rdx,%rax
  403187:	48 c1 e0 02          	shl    $0x2,%rax
  40318b:	48 01 d0             	add    %rdx,%rax
  40318e:	48 c1 e0 03          	shl    $0x3,%rax
  403192:	ba 00 20 00 00       	mov    $0x2000,%edx
  403197:	48 29 c2             	sub    %rax,%rdx
  40319a:	48 89 d0             	mov    %rdx,%rax
  40319d:	48 05 40 72 60 00    	add    $0x607240,%rax
  4031a3:	48 8b 10             	mov    (%rax),%rdx
  4031a6:	48 89 55 d0          	mov    %rdx,-0x30(%rbp)
  4031aa:	48 8b 50 08          	mov    0x8(%rax),%rdx
  4031ae:	48 89 55 d8          	mov    %rdx,-0x28(%rbp)
  4031b2:	48 8b 50 10          	mov    0x10(%rax),%rdx
  4031b6:	48 89 55 e0          	mov    %rdx,-0x20(%rbp)
  4031ba:	48 8b 50 18          	mov    0x18(%rax),%rdx
  4031be:	48 89 55 e8          	mov    %rdx,-0x18(%rbp)
  4031c2:	48 8b 40 20          	mov    0x20(%rax),%rax
  4031c6:	48 89 45 f0          	mov    %rax,-0x10(%rbp)
  4031ca:	83 45 c0 01          	addl   $0x1,-0x40(%rbp)
  4031ce:	8b 45 c0             	mov    -0x40(%rbp),%eax
  4031d1:	3b 45 c4             	cmp    -0x3c(%rbp),%eax
  4031d4:	7c a8                	jl     40317e <_Z10outputTestv+0x31>
  4031d6:	48 8b 45 f8          	mov    -0x8(%rbp),%rax
  4031da:	64 48 33 04 25 28 00 	xor    %fs:0x28,%rax
  4031e1:	00 00 
  4031e3:	74 05                	je     4031ea <_Z10outputTestv+0x9d>
  4031e5:	e8 86 e3 ff ff       	callq  401570 <__stack_chk_fail@plt>
  4031ea:	c9                   	leaveq 
  4031eb:	c3                   	retq   

00000000004031ec <_Z10insertNodejfj>:
  4031ec:	55                   	push   %rbp
  4031ed:	48 89 e5             	mov    %rsp,%rbp
  4031f0:	48 83 ec 50          	sub    $0x50,%rsp
  4031f4:	89 7d bc             	mov    %edi,-0x44(%rbp)
  4031f7:	f3 0f 11 45 b8       	movss  %xmm0,-0x48(%rbp)
  4031fc:	89 75 b4             	mov    %esi,-0x4c(%rbp)
  4031ff:	8b 45 b8             	mov    -0x48(%rbp),%eax
  403202:	89 45 c8             	mov    %eax,-0x38(%rbp)
  403205:	c7 45 c4 00 00 00 00 	movl   $0x0,-0x3c(%rbp)
  40320c:	48 8b 05 15 40 20 00 	mov    0x204015(%rip),%rax        # 607228 <currentNode>
  403213:	8b 00                	mov    (%rax),%eax
  403215:	89 45 cc             	mov    %eax,-0x34(%rbp)
  403218:	48 8b 05 09 40 20 00 	mov    0x204009(%rip),%rax        # 607228 <currentNode>
  40321f:	8b 40 04             	mov    0x4(%rax),%eax
  403222:	89 45 d0             	mov    %eax,-0x30(%rbp)
  403225:	48 8b 05 fc 3f 20 00 	mov    0x203ffc(%rip),%rax        # 607228 <currentNode>
  40322c:	48 83 c0 10          	add    $0x10,%rax
  403230:	48 89 45 f8          	mov    %rax,-0x8(%rbp)
  403234:	48 8b 05 ed 3f 20 00 	mov    0x203fed(%rip),%rax        # 607228 <currentNode>
  40323b:	8b 40 08             	mov    0x8(%rax),%eax
  40323e:	89 45 d4             	mov    %eax,-0x2c(%rbp)
  403241:	48 8b 05 e0 3f 20 00 	mov    0x203fe0(%rip),%rax        # 607228 <currentNode>
  403248:	8b 40 0c             	mov    0xc(%rax),%eax
  40324b:	89 45 d8             	mov    %eax,-0x28(%rbp)
  40324e:	c7 45 c4 00 00 00 00 	movl   $0x0,-0x3c(%rbp)
  403255:	e9 9f 02 00 00       	jmpq   4034f9 <_Z10insertNodejfj+0x30d>
  40325a:	48 8b 45 f8          	mov    -0x8(%rbp),%rax
  40325e:	f3 0f 10 48 04       	movss  0x4(%rax),%xmm1
  403263:	f3 0f 10 45 c8       	movss  -0x38(%rbp),%xmm0
  403268:	0f 2e c1             	ucomiss %xmm1,%xmm0
  40326b:	72 0e                	jb     40327b <_Z10insertNodejfj+0x8f>
  40326d:	48 83 45 f8 08       	addq   $0x8,-0x8(%rbp)
  403272:	83 45 c4 01          	addl   $0x1,-0x3c(%rbp)
  403276:	e9 7e 02 00 00       	jmpq   4034f9 <_Z10insertNodejfj+0x30d>
  40327b:	48 8b 45 f8          	mov    -0x8(%rbp),%rax
  40327f:	48 8b 00             	mov    (%rax),%rax
  403282:	48 89 45 e0          	mov    %rax,-0x20(%rbp)
  403286:	8b 05 a4 3f 20 00    	mov    0x203fa4(%rip),%eax        # 607230 <maxDepth>
  40328c:	39 45 d0             	cmp    %eax,-0x30(%rbp)
  40328f:	0f 85 ca 01 00 00    	jne    40345f <_Z10insertNodejfj+0x273>
  403295:	8b 45 bc             	mov    -0x44(%rbp),%eax
  403298:	89 45 f0             	mov    %eax,-0x10(%rbp)
  40329b:	8b 45 c8             	mov    -0x38(%rbp),%eax
  40329e:	89 45 f4             	mov    %eax,-0xc(%rbp)
  4032a1:	81 7d cc fc 03 00 00 	cmpl   $0x3fc,-0x34(%rbp)
  4032a8:	0f 86 b5 00 00 00    	jbe    403363 <_Z10insertNodejfj+0x177>
  4032ae:	8b 4d b4             	mov    -0x4c(%rbp),%ecx
  4032b1:	8b 45 c8             	mov    -0x38(%rbp),%eax
  4032b4:	8b 55 bc             	mov    -0x44(%rbp),%edx
  4032b7:	89 ce                	mov    %ecx,%esi
  4032b9:	89 45 b0             	mov    %eax,-0x50(%rbp)
  4032bc:	f3 0f 10 45 b0       	movss  -0x50(%rbp),%xmm0
  4032c1:	89 d7                	mov    %edx,%edi
  4032c3:	e8 84 03 00 00       	callq  40364c <_Z10spliteNodejfj>
  4032c8:	48 8b 05 59 3f 20 00 	mov    0x203f59(%rip),%rax        # 607228 <currentNode>
  4032cf:	48 85 c0             	test   %rax,%rax
  4032d2:	74 43                	je     403317 <_Z10insertNodejfj+0x12b>
  4032d4:	48 8b 15 4d 3f 20 00 	mov    0x203f4d(%rip),%rdx        # 607228 <currentNode>
  4032db:	48 8b 05 46 3f 20 00 	mov    0x203f46(%rip),%rax        # 607228 <currentNode>
  4032e2:	8b 40 08             	mov    0x8(%rax),%eax
  4032e5:	48 89 d6             	mov    %rdx,%rsi
  4032e8:	89 c7                	mov    %eax,%edi
  4032ea:	e8 d0 0a 00 00       	callq  403dbf <_Z9nodeWritejPv>
  4032ef:	48 8b 05 32 3f 20 00 	mov    0x203f32(%rip),%rax        # 607228 <currentNode>
  4032f6:	ba 00 20 00 00       	mov    $0x2000,%edx
  4032fb:	be 00 00 00 00       	mov    $0x0,%esi
  403300:	48 89 c7             	mov    %rax,%rdi
  403303:	e8 a8 e0 ff ff       	callq  4013b0 <memset@plt>
  403308:	48 8b 05 19 3f 20 00 	mov    0x203f19(%rip),%rax        # 607228 <currentNode>
  40330f:	48 89 c7             	mov    %rax,%rdi
  403312:	e8 a9 e1 ff ff       	callq  4014c0 <free@plt>
  403317:	48 8b 05 02 3f 20 00 	mov    0x203f02(%rip),%rax        # 607220 <rootTree>
  40331e:	8b 40 08             	mov    0x8(%rax),%eax
  403321:	89 c7                	mov    %eax,%edi
  403323:	e8 01 0b 00 00       	callq  403e29 <_Z8nodeReadj>
  403328:	48 89 05 f9 3e 20 00 	mov    %rax,0x203ef9(%rip)        # 607228 <currentNode>
  40332f:	48 8b 05 ea 3e 20 00 	mov    0x203eea(%rip),%rax        # 607220 <rootTree>
  403336:	8b 40 08             	mov    0x8(%rax),%eax
  403339:	89 05 f5 3e 20 00    	mov    %eax,0x203ef5(%rip)        # 607234 <currentNodeNum>
  40333f:	8b 45 c8             	mov    -0x38(%rbp),%eax
  403342:	8b 55 bc             	mov    -0x44(%rbp),%edx
  403345:	be 00 00 00 00       	mov    $0x0,%esi
  40334a:	89 45 b0             	mov    %eax,-0x50(%rbp)
  40334d:	f3 0f 10 45 b0       	movss  -0x50(%rbp),%xmm0
  403352:	89 d7                	mov    %edx,%edi
  403354:	e8 93 fe ff ff       	callq  4031ec <_Z10insertNodejfj>
  403359:	b8 00 00 00 00       	mov    $0x0,%eax
  40335e:	e9 e7 02 00 00       	jmpq   40364a <_Z10insertNodejfj+0x45e>
  403363:	48 8b 05 be 3e 20 00 	mov    0x203ebe(%rip),%rax        # 607228 <currentNode>
  40336a:	8b 40 08             	mov    0x8(%rax),%eax
  40336d:	3b 45 d4             	cmp    -0x2c(%rbp),%eax
  403370:	74 7b                	je     4033ed <_Z10insertNodejfj+0x201>
  403372:	48 8b 15 af 3e 20 00 	mov    0x203eaf(%rip),%rdx        # 607228 <currentNode>
  403379:	48 8b 05 a8 3e 20 00 	mov    0x203ea8(%rip),%rax        # 607228 <currentNode>
  403380:	8b 40 08             	mov    0x8(%rax),%eax
  403383:	48 89 d6             	mov    %rdx,%rsi
  403386:	89 c7                	mov    %eax,%edi
  403388:	e8 32 0a 00 00       	callq  403dbf <_Z9nodeWritejPv>
  40338d:	48 8b 05 94 3e 20 00 	mov    0x203e94(%rip),%rax        # 607228 <currentNode>
  403394:	48 85 c0             	test   %rax,%rax
  403397:	74 28                	je     4033c1 <_Z10insertNodejfj+0x1d5>
  403399:	48 8b 05 88 3e 20 00 	mov    0x203e88(%rip),%rax        # 607228 <currentNode>
  4033a0:	ba 00 20 00 00       	mov    $0x2000,%edx
  4033a5:	be 00 00 00 00       	mov    $0x0,%esi
  4033aa:	48 89 c7             	mov    %rax,%rdi
  4033ad:	e8 fe df ff ff       	callq  4013b0 <memset@plt>
  4033b2:	48 8b 05 6f 3e 20 00 	mov    0x203e6f(%rip),%rax        # 607228 <currentNode>
  4033b9:	48 89 c7             	mov    %rax,%rdi
  4033bc:	e8 ff e0 ff ff       	callq  4014c0 <free@plt>
  4033c1:	48 c7 05 5c 3e 20 00 	movq   $0x0,0x203e5c(%rip)        # 607228 <currentNode>
  4033c8:	00 00 00 00 
  4033cc:	8b 45 e0             	mov    -0x20(%rbp),%eax
  4033cf:	89 c7                	mov    %eax,%edi
  4033d1:	e8 53 0a 00 00       	callq  403e29 <_Z8nodeReadj>
  4033d6:	48 89 05 4b 3e 20 00 	mov    %rax,0x203e4b(%rip)        # 607228 <currentNode>
  4033dd:	48 8b 05 44 3e 20 00 	mov    0x203e44(%rip),%rax        # 607228 <currentNode>
  4033e4:	8b 40 08             	mov    0x8(%rax),%eax
  4033e7:	89 05 47 3e 20 00    	mov    %eax,0x203e47(%rip)        # 607234 <currentNodeNum>
  4033ed:	48 8b 05 34 3e 20 00 	mov    0x203e34(%rip),%rax        # 607228 <currentNode>
  4033f4:	8b 55 c4             	mov    -0x3c(%rbp),%edx
  4033f7:	48 63 d2             	movslq %edx,%rdx
  4033fa:	48 83 c2 02          	add    $0x2,%rdx
  4033fe:	48 c1 e2 03          	shl    $0x3,%rdx
  403402:	48 01 d0             	add    %rdx,%rax
  403405:	48 89 45 f8          	mov    %rax,-0x8(%rbp)
  403409:	8b 45 c4             	mov    -0x3c(%rbp),%eax
  40340c:	8b 55 cc             	mov    -0x34(%rbp),%edx
  40340f:	29 c2                	sub    %eax,%edx
  403411:	89 d0                	mov    %edx,%eax
  403413:	89 c0                	mov    %eax,%eax
  403415:	48 8d 14 c5 00 00 00 	lea    0x0(,%rax,8),%rdx
  40341c:	00 
  40341d:	48 8b 45 f8          	mov    -0x8(%rbp),%rax
  403421:	48 8d 48 08          	lea    0x8(%rax),%rcx
  403425:	48 8b 45 f8          	mov    -0x8(%rbp),%rax
  403429:	48 89 c6             	mov    %rax,%rsi
  40342c:	48 89 cf             	mov    %rcx,%rdi
  40342f:	e8 1c e1 ff ff       	callq  401550 <memmove@plt>
  403434:	48 8d 4d f0          	lea    -0x10(%rbp),%rcx
  403438:	48 8b 45 f8          	mov    -0x8(%rbp),%rax
  40343c:	ba 08 00 00 00       	mov    $0x8,%edx
  403441:	48 89 ce             	mov    %rcx,%rsi
  403444:	48 89 c7             	mov    %rax,%rdi
  403447:	e8 34 e2 ff ff       	callq  401680 <memcpy@plt>
  40344c:	48 8b 05 d5 3d 20 00 	mov    0x203dd5(%rip),%rax        # 607228 <currentNode>
  403453:	8b 10                	mov    (%rax),%edx
  403455:	83 c2 01             	add    $0x1,%edx
  403458:	89 10                	mov    %edx,(%rax)
  40345a:	e9 ab 00 00 00       	jmpq   40350a <_Z10insertNodejfj+0x31e>
  40345f:	48 8b 15 c2 3d 20 00 	mov    0x203dc2(%rip),%rdx        # 607228 <currentNode>
  403466:	48 8b 05 bb 3d 20 00 	mov    0x203dbb(%rip),%rax        # 607228 <currentNode>
  40346d:	8b 40 08             	mov    0x8(%rax),%eax
  403470:	48 89 d6             	mov    %rdx,%rsi
  403473:	89 c7                	mov    %eax,%edi
  403475:	e8 45 09 00 00       	callq  403dbf <_Z9nodeWritejPv>
  40347a:	48 8b 05 a7 3d 20 00 	mov    0x203da7(%rip),%rax        # 607228 <currentNode>
  403481:	48 85 c0             	test   %rax,%rax
  403484:	74 28                	je     4034ae <_Z10insertNodejfj+0x2c2>
  403486:	48 8b 05 9b 3d 20 00 	mov    0x203d9b(%rip),%rax        # 607228 <currentNode>
  40348d:	ba 00 20 00 00       	mov    $0x2000,%edx
  403492:	be 00 00 00 00       	mov    $0x0,%esi
  403497:	48 89 c7             	mov    %rax,%rdi
  40349a:	e8 11 df ff ff       	callq  4013b0 <memset@plt>
  40349f:	48 8b 05 82 3d 20 00 	mov    0x203d82(%rip),%rax        # 607228 <currentNode>
  4034a6:	48 89 c7             	mov    %rax,%rdi
  4034a9:	e8 12 e0 ff ff       	callq  4014c0 <free@plt>
  4034ae:	48 c7 05 6f 3d 20 00 	movq   $0x0,0x203d6f(%rip)        # 607228 <currentNode>
  4034b5:	00 00 00 00 
  4034b9:	8b 45 e0             	mov    -0x20(%rbp),%eax
  4034bc:	89 c7                	mov    %eax,%edi
  4034be:	e8 66 09 00 00       	callq  403e29 <_Z8nodeReadj>
  4034c3:	48 89 05 5e 3d 20 00 	mov    %rax,0x203d5e(%rip)        # 607228 <currentNode>
  4034ca:	48 8b 05 57 3d 20 00 	mov    0x203d57(%rip),%rax        # 607228 <currentNode>
  4034d1:	8b 40 08             	mov    0x8(%rax),%eax
  4034d4:	89 05 5a 3d 20 00    	mov    %eax,0x203d5a(%rip)        # 607234 <currentNodeNum>
  4034da:	8b 45 b4             	mov    -0x4c(%rbp),%eax
  4034dd:	8d 48 01             	lea    0x1(%rax),%ecx
  4034e0:	8b 45 c8             	mov    -0x38(%rbp),%eax
  4034e3:	8b 55 bc             	mov    -0x44(%rbp),%edx
  4034e6:	89 ce                	mov    %ecx,%esi
  4034e8:	89 45 b0             	mov    %eax,-0x50(%rbp)
  4034eb:	f3 0f 10 45 b0       	movss  -0x50(%rbp),%xmm0
  4034f0:	89 d7                	mov    %edx,%edi
  4034f2:	e8 f5 fc ff ff       	callq  4031ec <_Z10insertNodejfj>
  4034f7:	eb 11                	jmp    40350a <_Z10insertNodejfj+0x31e>
  4034f9:	8b 45 c4             	mov    -0x3c(%rbp),%eax
  4034fc:	8b 55 cc             	mov    -0x34(%rbp),%edx
  4034ff:	83 c2 01             	add    $0x1,%edx
  403502:	39 d0                	cmp    %edx,%eax
  403504:	0f 82 50 fd ff ff    	jb     40325a <_Z10insertNodejfj+0x6e>
  40350a:	8b 45 c4             	mov    -0x3c(%rbp),%eax
  40350d:	8b 55 cc             	mov    -0x34(%rbp),%edx
  403510:	83 c2 01             	add    $0x1,%edx
  403513:	39 d0                	cmp    %edx,%eax
  403515:	0f 82 9a 00 00 00    	jb     4035b5 <_Z10insertNodejfj+0x3c9>
  40351b:	8b 05 0f 3d 20 00    	mov    0x203d0f(%rip),%eax        # 607230 <maxDepth>
  403521:	39 45 d0             	cmp    %eax,-0x30(%rbp)
  403524:	75 75                	jne    40359b <_Z10insertNodejfj+0x3af>
  403526:	48 8b 05 fb 3c 20 00 	mov    0x203cfb(%rip),%rax        # 607228 <currentNode>
  40352d:	8b 80 f8 1f 00 00    	mov    0x1ff8(%rax),%eax
  403533:	89 45 dc             	mov    %eax,-0x24(%rbp)
  403536:	48 8b 15 eb 3c 20 00 	mov    0x203ceb(%rip),%rdx        # 607228 <currentNode>
  40353d:	8b 05 f1 3c 20 00    	mov    0x203cf1(%rip),%eax        # 607234 <currentNodeNum>
  403543:	48 89 d6             	mov    %rdx,%rsi
  403546:	89 c7                	mov    %eax,%edi
  403548:	e8 72 08 00 00       	callq  403dbf <_Z9nodeWritejPv>
  40354d:	48 8b 05 d4 3c 20 00 	mov    0x203cd4(%rip),%rax        # 607228 <currentNode>
  403554:	48 85 c0             	test   %rax,%rax
  403557:	74 28                	je     403581 <_Z10insertNodejfj+0x395>
  403559:	48 8b 05 c8 3c 20 00 	mov    0x203cc8(%rip),%rax        # 607228 <currentNode>
  403560:	ba 00 20 00 00       	mov    $0x2000,%edx
  403565:	be 00 00 00 00       	mov    $0x0,%esi
  40356a:	48 89 c7             	mov    %rax,%rdi
  40356d:	e8 3e de ff ff       	callq  4013b0 <memset@plt>
  403572:	48 8b 05 af 3c 20 00 	mov    0x203caf(%rip),%rax        # 607228 <currentNode>
  403579:	48 89 c7             	mov    %rax,%rdi
  40357c:	e8 3f df ff ff       	callq  4014c0 <free@plt>
  403581:	8b 45 dc             	mov    -0x24(%rbp),%eax
  403584:	89 c7                	mov    %eax,%edi
  403586:	e8 9e 08 00 00       	callq  403e29 <_Z8nodeReadj>
  40358b:	48 89 05 96 3c 20 00 	mov    %rax,0x203c96(%rip)        # 607228 <currentNode>
  403592:	8b 45 dc             	mov    -0x24(%rbp),%eax
  403595:	89 05 99 3c 20 00    	mov    %eax,0x203c99(%rip)        # 607234 <currentNodeNum>
  40359b:	8b 4d b4             	mov    -0x4c(%rbp),%ecx
  40359e:	8b 45 c8             	mov    -0x38(%rbp),%eax
  4035a1:	8b 55 bc             	mov    -0x44(%rbp),%edx
  4035a4:	89 ce                	mov    %ecx,%esi
  4035a6:	89 45 b0             	mov    %eax,-0x50(%rbp)
  4035a9:	f3 0f 10 45 b0       	movss  -0x50(%rbp),%xmm0
  4035ae:	89 d7                	mov    %edx,%edi
  4035b0:	e8 37 fc ff ff       	callq  4031ec <_Z10insertNodejfj>
  4035b5:	48 8b 15 6c 3c 20 00 	mov    0x203c6c(%rip),%rdx        # 607228 <currentNode>
  4035bc:	48 8b 05 65 3c 20 00 	mov    0x203c65(%rip),%rax        # 607228 <currentNode>
  4035c3:	8b 40 08             	mov    0x8(%rax),%eax
  4035c6:	48 89 d6             	mov    %rdx,%rsi
  4035c9:	89 c7                	mov    %eax,%edi
  4035cb:	e8 ef 07 00 00       	callq  403dbf <_Z9nodeWritejPv>
  4035d0:	48 8b 05 51 3c 20 00 	mov    0x203c51(%rip),%rax        # 607228 <currentNode>
  4035d7:	ba 00 20 00 00       	mov    $0x2000,%edx
  4035dc:	be 00 00 00 00       	mov    $0x0,%esi
  4035e1:	48 89 c7             	mov    %rax,%rdi
  4035e4:	e8 c7 dd ff ff       	callq  4013b0 <memset@plt>
  4035e9:	48 8b 05 38 3c 20 00 	mov    0x203c38(%rip),%rax        # 607228 <currentNode>
  4035f0:	48 89 c7             	mov    %rax,%rdi
  4035f3:	e8 c8 de ff ff       	callq  4014c0 <free@plt>
  4035f8:	48 c7 05 25 3c 20 00 	movq   $0x0,0x203c25(%rip)        # 607228 <currentNode>
  4035ff:	00 00 00 00 
  403603:	8b 45 d4             	mov    -0x2c(%rbp),%eax
  403606:	89 c7                	mov    %eax,%edi
  403608:	e8 1c 08 00 00       	callq  403e29 <_Z8nodeReadj>
  40360d:	48 89 05 14 3c 20 00 	mov    %rax,0x203c14(%rip)        # 607228 <currentNode>
  403614:	48 8b 05 0d 3c 20 00 	mov    0x203c0d(%rip),%rax        # 607228 <currentNode>
  40361b:	8b 50 08             	mov    0x8(%rax),%edx
  40361e:	48 8b 05 fb 3b 20 00 	mov    0x203bfb(%rip),%rax        # 607220 <rootTree>
  403625:	8b 40 08             	mov    0x8(%rax),%eax
  403628:	39 c2                	cmp    %eax,%edx
  40362a:	75 1e                	jne    40364a <_Z10insertNodejfj+0x45e>
  40362c:	48 8b 0d f5 3b 20 00 	mov    0x203bf5(%rip),%rcx        # 607228 <currentNode>
  403633:	48 8b 05 e6 3b 20 00 	mov    0x203be6(%rip),%rax        # 607220 <rootTree>
  40363a:	ba 00 20 00 00       	mov    $0x2000,%edx
  40363f:	48 89 ce             	mov    %rcx,%rsi
  403642:	48 89 c7             	mov    %rax,%rdi
  403645:	e8 36 e0 ff ff       	callq  401680 <memcpy@plt>
  40364a:	c9                   	leaveq 
  40364b:	c3                   	retq   

000000000040364c <_Z10spliteNodejfj>:
  40364c:	55                   	push   %rbp
  40364d:	48 89 e5             	mov    %rsp,%rbp
  403650:	48 81 ec b0 00 00 00 	sub    $0xb0,%rsp
  403657:	89 bd 5c ff ff ff    	mov    %edi,-0xa4(%rbp)
  40365d:	f3 0f 11 85 58 ff ff 	movss  %xmm0,-0xa8(%rbp)
  403664:	ff 
  403665:	89 b5 54 ff ff ff    	mov    %esi,-0xac(%rbp)
  40366b:	c7 85 64 ff ff ff 00 	movl   $0x0,-0x9c(%rbp)
  403672:	00 00 00 
  403675:	c7 85 68 ff ff ff 00 	movl   $0x0,-0x98(%rbp)
  40367c:	00 00 00 
  40367f:	48 8b 05 a2 3b 20 00 	mov    0x203ba2(%rip),%rax        # 607228 <currentNode>
  403686:	8b 80 04 10 00 00    	mov    0x1004(%rax),%eax
  40368c:	89 85 70 ff ff ff    	mov    %eax,-0x90(%rbp)
  403692:	c7 45 e0 00 00 00 00 	movl   $0x0,-0x20(%rbp)
  403699:	c7 45 e4 00 00 00 00 	movl   $0x0,-0x1c(%rbp)
  4036a0:	c7 45 e8 00 00 00 00 	movl   $0x0,-0x18(%rbp)
  4036a7:	c7 45 ec ff ff ff ff 	movl   $0xffffffff,-0x14(%rbp)
  4036ae:	c7 45 f0 00 00 00 00 	movl   $0x0,-0x10(%rbp)
  4036b5:	c7 45 f4 00 00 00 00 	movl   $0x0,-0xc(%rbp)
  4036bc:	c7 45 f8 00 00 00 00 	movl   $0x0,-0x8(%rbp)
  4036c3:	c7 45 fc ff ff ff ff 	movl   $0xffffffff,-0x4(%rbp)
  4036ca:	c7 45 a0 ff ff ff ff 	movl   $0xffffffff,-0x60(%rbp)
  4036d1:	8b 05 91 19 00 00    	mov    0x1991(%rip),%eax        # 405068 <_ZZL18__gthread_active_pvE20__gthread_active_ptr+0x8>
  4036d7:	89 45 a4             	mov    %eax,-0x5c(%rbp)
  4036da:	48 8b 05 47 3b 20 00 	mov    0x203b47(%rip),%rax        # 607228 <currentNode>
  4036e1:	8b 40 0c             	mov    0xc(%rax),%eax
  4036e4:	89 85 74 ff ff ff    	mov    %eax,-0x8c(%rbp)
  4036ea:	48 8b 05 37 3b 20 00 	mov    0x203b37(%rip),%rax        # 607228 <currentNode>
  4036f1:	8b 40 08             	mov    0x8(%rax),%eax
  4036f4:	89 85 78 ff ff ff    	mov    %eax,-0x88(%rbp)
  4036fa:	48 8b 05 27 3b 20 00 	mov    0x203b27(%rip),%rax        # 607228 <currentNode>
  403701:	8b 00                	mov    (%rax),%eax
  403703:	89 85 7c ff ff ff    	mov    %eax,-0x84(%rbp)
  403709:	83 bd 74 ff ff ff ff 	cmpl   $0xffffffff,-0x8c(%rbp)
  403710:	75 0a                	jne    40371c <_Z10spliteNodejfj+0xd0>
  403712:	c7 85 68 ff ff ff 01 	movl   $0x1,-0x98(%rbp)
  403719:	00 00 00 
  40371c:	48 8b 05 05 3b 20 00 	mov    0x203b05(%rip),%rax        # 607228 <currentNode>
  403723:	48 8d 88 00 10 00 00 	lea    0x1000(%rax),%rcx
  40372a:	48 8d 45 90          	lea    -0x70(%rbp),%rax
  40372e:	ba 08 00 00 00       	mov    $0x8,%edx
  403733:	48 89 ce             	mov    %rcx,%rsi
  403736:	48 89 c7             	mov    %rax,%rdi
  403739:	e8 42 df ff ff       	callq  401680 <memcpy@plt>
  40373e:	48 8b 15 e3 3a 20 00 	mov    0x203ae3(%rip),%rdx        # 607228 <currentNode>
  403745:	48 8b 05 dc 3a 20 00 	mov    0x203adc(%rip),%rax        # 607228 <currentNode>
  40374c:	8b 40 08             	mov    0x8(%rax),%eax
  40374f:	48 89 d6             	mov    %rdx,%rsi
  403752:	89 c7                	mov    %eax,%edi
  403754:	e8 66 06 00 00       	callq  403dbf <_Z9nodeWritejPv>
  403759:	48 8b 05 c8 3a 20 00 	mov    0x203ac8(%rip),%rax        # 607228 <currentNode>
  403760:	48 85 c0             	test   %rax,%rax
  403763:	74 28                	je     40378d <_Z10spliteNodejfj+0x141>
  403765:	48 8b 05 bc 3a 20 00 	mov    0x203abc(%rip),%rax        # 607228 <currentNode>
  40376c:	ba 00 20 00 00       	mov    $0x2000,%edx
  403771:	be 00 00 00 00       	mov    $0x0,%esi
  403776:	48 89 c7             	mov    %rax,%rdi
  403779:	e8 32 dc ff ff       	callq  4013b0 <memset@plt>
  40377e:	48 8b 05 a3 3a 20 00 	mov    0x203aa3(%rip),%rax        # 607228 <currentNode>
  403785:	48 89 c7             	mov    %rax,%rdi
  403788:	e8 33 dd ff ff       	callq  4014c0 <free@plt>
  40378d:	48 c7 05 90 3a 20 00 	movq   $0x0,0x203a90(%rip)        # 607228 <currentNode>
  403794:	00 00 00 00 
  403798:	83 bd 68 ff ff ff 00 	cmpl   $0x0,-0x98(%rbp)
  40379f:	0f 84 22 01 00 00    	je     4038c7 <_Z10spliteNodejfj+0x27b>
  4037a5:	bf 00 20 00 00       	mov    $0x2000,%edi
  4037aa:	e8 81 dc ff ff       	callq  401430 <malloc@plt>
  4037af:	48 89 45 b0          	mov    %rax,-0x50(%rbp)
  4037b3:	b8 e8 1f 00 00       	mov    $0x1fe8,%eax
  4037b8:	48 8b 55 b0          	mov    -0x50(%rbp),%rdx
  4037bc:	48 8d 4a 10          	lea    0x10(%rdx),%rcx
  4037c0:	48 89 c2             	mov    %rax,%rdx
  4037c3:	be ff 00 00 00       	mov    $0xff,%esi
  4037c8:	48 89 cf             	mov    %rcx,%rdi
  4037cb:	e8 e0 db ff ff       	callq  4013b0 <memset@plt>
  4037d0:	c7 45 f0 01 00 00 00 	movl   $0x1,-0x10(%rbp)
  4037d7:	8b 05 5b 3a 20 00    	mov    0x203a5b(%rip),%eax        # 607238 <currentNodeCount>
  4037dd:	83 c0 01             	add    $0x1,%eax
  4037e0:	89 45 f8             	mov    %eax,-0x8(%rbp)
  4037e3:	8b 45 f8             	mov    -0x8(%rbp),%eax
  4037e6:	89 85 74 ff ff ff    	mov    %eax,-0x8c(%rbp)
  4037ec:	48 8d 4d f0          	lea    -0x10(%rbp),%rcx
  4037f0:	48 8b 45 b0          	mov    -0x50(%rbp),%rax
  4037f4:	ba 10 00 00 00       	mov    $0x10,%edx
  4037f9:	48 89 ce             	mov    %rcx,%rsi
  4037fc:	48 89 c7             	mov    %rax,%rdi
  4037ff:	e8 7c de ff ff       	callq  401680 <memcpy@plt>
  403804:	8b 85 70 ff ff ff    	mov    -0x90(%rbp),%eax
  40380a:	89 45 84             	mov    %eax,-0x7c(%rbp)
  40380d:	8b 85 78 ff ff ff    	mov    -0x88(%rbp),%eax
  403813:	89 45 80             	mov    %eax,-0x80(%rbp)
  403816:	48 8b 45 b0          	mov    -0x50(%rbp),%rax
  40381a:	48 8d 48 10          	lea    0x10(%rax),%rcx
  40381e:	48 8d 45 80          	lea    -0x80(%rbp),%rax
  403822:	ba 08 00 00 00       	mov    $0x8,%edx
  403827:	48 89 c6             	mov    %rax,%rsi
  40382a:	48 89 cf             	mov    %rcx,%rdi
  40382d:	e8 4e de ff ff       	callq  401680 <memcpy@plt>
  403832:	8b 05 34 18 00 00    	mov    0x1834(%rip),%eax        # 40506c <_ZZL18__gthread_active_pvE20__gthread_active_ptr+0xc>
  403838:	89 45 a4             	mov    %eax,-0x5c(%rbp)
  40383b:	8b 45 f8             	mov    -0x8(%rbp),%eax
  40383e:	83 c0 01             	add    $0x1,%eax
  403841:	89 45 a0             	mov    %eax,-0x60(%rbp)
  403844:	48 8b 45 b0          	mov    -0x50(%rbp),%rax
  403848:	48 8d 48 18          	lea    0x18(%rax),%rcx
  40384c:	48 8d 45 a0          	lea    -0x60(%rbp),%rax
  403850:	ba 08 00 00 00       	mov    $0x8,%edx
  403855:	48 89 c6             	mov    %rax,%rsi
  403858:	48 89 cf             	mov    %rcx,%rdi
  40385b:	e8 20 de ff ff       	callq  401680 <memcpy@plt>
  403860:	8b 05 06 18 00 00    	mov    0x1806(%rip),%eax        # 40506c <_ZZL18__gthread_active_pvE20__gthread_active_ptr+0xc>
  403866:	89 45 a4             	mov    %eax,-0x5c(%rbp)
  403869:	c7 45 a0 ff ff ff ff 	movl   $0xffffffff,-0x60(%rbp)
  403870:	48 8b 45 b0          	mov    -0x50(%rbp),%rax
  403874:	48 8d 48 20          	lea    0x20(%rax),%rcx
  403878:	48 8d 45 a0          	lea    -0x60(%rbp),%rax
  40387c:	ba 08 00 00 00       	mov    $0x8,%edx
  403881:	48 89 c6             	mov    %rax,%rsi
  403884:	48 89 cf             	mov    %rcx,%rdi
  403887:	e8 f4 dd ff ff       	callq  401680 <memcpy@plt>
  40388c:	c7 85 6c ff ff ff ff 	movl   $0xffffffff,-0x94(%rbp)
  403893:	ff ff ff 
  403896:	bf 00 20 00 00       	mov    $0x2000,%edi
  40389b:	e8 90 db ff ff       	callq  401430 <malloc@plt>
  4038a0:	48 89 05 79 39 20 00 	mov    %rax,0x203979(%rip)        # 607220 <rootTree>
  4038a7:	48 8b 05 72 39 20 00 	mov    0x203972(%rip),%rax        # 607220 <rootTree>
  4038ae:	48 8b 4d b0          	mov    -0x50(%rbp),%rcx
  4038b2:	ba 00 20 00 00       	mov    $0x2000,%edx
  4038b7:	48 89 ce             	mov    %rcx,%rsi
  4038ba:	48 89 c7             	mov    %rax,%rdi
  4038bd:	e8 be dd ff ff       	callq  401680 <memcpy@plt>
  4038c2:	e9 f0 01 00 00       	jmpq   403ab7 <_Z10spliteNodejfj+0x46b>
  4038c7:	8b 85 74 ff ff ff    	mov    -0x8c(%rbp),%eax
  4038cd:	89 c7                	mov    %eax,%edi
  4038cf:	e8 55 05 00 00       	callq  403e29 <_Z8nodeReadj>
  4038d4:	48 89 45 b0          	mov    %rax,-0x50(%rbp)
  4038d8:	48 8b 45 b0          	mov    -0x50(%rbp),%rax
  4038dc:	48 89 05 45 39 20 00 	mov    %rax,0x203945(%rip)        # 607228 <currentNode>
  4038e3:	48 8b 45 b0          	mov    -0x50(%rbp),%rax
  4038e7:	8b 40 08             	mov    0x8(%rax),%eax
  4038ea:	89 05 44 39 20 00    	mov    %eax,0x203944(%rip)        # 607234 <currentNodeNum>
  4038f0:	8b 05 3e 39 20 00    	mov    0x20393e(%rip),%eax        # 607234 <currentNodeNum>
  4038f6:	89 85 74 ff ff ff    	mov    %eax,-0x8c(%rbp)
  4038fc:	48 8b 45 b0          	mov    -0x50(%rbp),%rax
  403900:	8b 00                	mov    (%rax),%eax
  403902:	3d fb 03 00 00       	cmp    $0x3fb,%eax
  403907:	76 2c                	jbe    403935 <_Z10spliteNodejfj+0x2e9>
  403909:	8b 85 54 ff ff ff    	mov    -0xac(%rbp),%eax
  40390f:	8d 48 ff             	lea    -0x1(%rax),%ecx
  403912:	8b 85 58 ff ff ff    	mov    -0xa8(%rbp),%eax
  403918:	8b 95 5c ff ff ff    	mov    -0xa4(%rbp),%edx
  40391e:	89 ce                	mov    %ecx,%esi
  403920:	89 85 50 ff ff ff    	mov    %eax,-0xb0(%rbp)
  403926:	f3 0f 10 85 50 ff ff 	movss  -0xb0(%rbp),%xmm0
  40392d:	ff 
  40392e:	89 d7                	mov    %edx,%edi
  403930:	e8 17 fd ff ff       	callq  40364c <_Z10spliteNodejfj>
  403935:	8b 05 f9 38 20 00    	mov    0x2038f9(%rip),%eax        # 607234 <currentNodeNum>
  40393b:	3b 85 74 ff ff ff    	cmp    -0x8c(%rbp),%eax
  403941:	0f 84 97 00 00 00    	je     4039de <_Z10spliteNodejfj+0x392>
  403947:	48 8b 15 da 38 20 00 	mov    0x2038da(%rip),%rdx        # 607228 <currentNode>
  40394e:	8b 05 e0 38 20 00    	mov    0x2038e0(%rip),%eax        # 607234 <currentNodeNum>
  403954:	48 89 d6             	mov    %rdx,%rsi
  403957:	89 c7                	mov    %eax,%edi
  403959:	e8 61 04 00 00       	callq  403dbf <_Z9nodeWritejPv>
  40395e:	48 8b 05 c3 38 20 00 	mov    0x2038c3(%rip),%rax        # 607228 <currentNode>
  403965:	48 85 c0             	test   %rax,%rax
  403968:	74 28                	je     403992 <_Z10spliteNodejfj+0x346>
  40396a:	48 8b 05 b7 38 20 00 	mov    0x2038b7(%rip),%rax        # 607228 <currentNode>
  403971:	ba 00 20 00 00       	mov    $0x2000,%edx
  403976:	be 00 00 00 00       	mov    $0x0,%esi
  40397b:	48 89 c7             	mov    %rax,%rdi
  40397e:	e8 2d da ff ff       	callq  4013b0 <memset@plt>
  403983:	48 8b 05 9e 38 20 00 	mov    0x20389e(%rip),%rax        # 607228 <currentNode>
  40398a:	48 89 c7             	mov    %rax,%rdi
  40398d:	e8 2e db ff ff       	callq  4014c0 <free@plt>
  403992:	48 c7 05 8b 38 20 00 	movq   $0x0,0x20388b(%rip)        # 607228 <currentNode>
  403999:	00 00 00 00 
  40399d:	8b 85 74 ff ff ff    	mov    -0x8c(%rbp),%eax
  4039a3:	89 c7                	mov    %eax,%edi
  4039a5:	e8 7f 04 00 00       	callq  403e29 <_Z8nodeReadj>
  4039aa:	48 89 45 b0          	mov    %rax,-0x50(%rbp)
  4039ae:	48 8b 45 b0          	mov    -0x50(%rbp),%rax
  4039b2:	48 89 05 6f 38 20 00 	mov    %rax,0x20386f(%rip)        # 607228 <currentNode>
  4039b9:	48 8b 45 b0          	mov    -0x50(%rbp),%rax
  4039bd:	8b 40 08             	mov    0x8(%rax),%eax
  4039c0:	89 05 6e 38 20 00    	mov    %eax,0x20386e(%rip)        # 607234 <currentNodeNum>
  4039c6:	8b 05 68 38 20 00    	mov    0x203868(%rip),%eax        # 607234 <currentNodeNum>
  4039cc:	89 85 74 ff ff ff    	mov    %eax,-0x8c(%rbp)
  4039d2:	8b 85 74 ff ff ff    	mov    -0x8c(%rbp),%eax
  4039d8:	89 05 56 38 20 00    	mov    %eax,0x203856(%rip)        # 607234 <currentNodeNum>
  4039de:	48 8b 45 b0          	mov    -0x50(%rbp),%rax
  4039e2:	48 83 c0 10          	add    $0x10,%rax
  4039e6:	48 89 45 b8          	mov    %rax,-0x48(%rbp)
  4039ea:	c7 85 64 ff ff ff 00 	movl   $0x0,-0x9c(%rbp)
  4039f1:	00 00 00 
  4039f4:	eb 20                	jmp    403a16 <_Z10spliteNodejfj+0x3ca>
  4039f6:	48 8b 45 b8          	mov    -0x48(%rbp),%rax
  4039fa:	f3 0f 10 40 04       	movss  0x4(%rax),%xmm0
  4039ff:	0f 2e 85 70 ff ff ff 	ucomiss -0x90(%rbp),%xmm0
  403a06:	76 02                	jbe    403a0a <_Z10spliteNodejfj+0x3be>
  403a08:	eb 1f                	jmp    403a29 <_Z10spliteNodejfj+0x3dd>
  403a0a:	48 83 45 b8 08       	addq   $0x8,-0x48(%rbp)
  403a0f:	83 85 64 ff ff ff 01 	addl   $0x1,-0x9c(%rbp)
  403a16:	8b 95 64 ff ff ff    	mov    -0x9c(%rbp),%edx
  403a1c:	48 8b 45 b0          	mov    -0x50(%rbp),%rax
  403a20:	8b 00                	mov    (%rax),%eax
  403a22:	83 c0 01             	add    $0x1,%eax
  403a25:	39 c2                	cmp    %eax,%edx
  403a27:	72 cd                	jb     4039f6 <_Z10spliteNodejfj+0x3aa>
  403a29:	8b 05 09 38 20 00    	mov    0x203809(%rip),%eax        # 607238 <currentNodeCount>
  403a2f:	83 c0 01             	add    $0x1,%eax
  403a32:	89 45 90             	mov    %eax,-0x70(%rbp)
  403a35:	48 8b 45 b8          	mov    -0x48(%rbp),%rax
  403a39:	8b 40 04             	mov    0x4(%rax),%eax
  403a3c:	89 45 94             	mov    %eax,-0x6c(%rbp)
  403a3f:	b8 fd 03 00 00       	mov    $0x3fd,%eax
  403a44:	2b 85 64 ff ff ff    	sub    -0x9c(%rbp),%eax
  403a4a:	48 98                	cltq   
  403a4c:	48 8d 14 c5 00 00 00 	lea    0x0(,%rax,8),%rdx
  403a53:	00 
  403a54:	48 8b 45 b8          	mov    -0x48(%rbp),%rax
  403a58:	48 8d 48 08          	lea    0x8(%rax),%rcx
  403a5c:	48 8b 45 b8          	mov    -0x48(%rbp),%rax
  403a60:	48 83 c0 10          	add    $0x10,%rax
  403a64:	48 89 ce             	mov    %rcx,%rsi
  403a67:	48 89 c7             	mov    %rax,%rdi
  403a6a:	e8 e1 da ff ff       	callq  401550 <memmove@plt>
  403a6f:	48 8b 45 b8          	mov    -0x48(%rbp),%rax
  403a73:	48 8d 48 08          	lea    0x8(%rax),%rcx
  403a77:	48 8d 45 90          	lea    -0x70(%rbp),%rax
  403a7b:	ba 08 00 00 00       	mov    $0x8,%edx
  403a80:	48 89 c6             	mov    %rax,%rsi
  403a83:	48 89 cf             	mov    %rcx,%rdi
  403a86:	e8 f5 db ff ff       	callq  401680 <memcpy@plt>
  403a8b:	48 8b 55 b8          	mov    -0x48(%rbp),%rdx
  403a8f:	8b 85 70 ff ff ff    	mov    -0x90(%rbp),%eax
  403a95:	89 42 04             	mov    %eax,0x4(%rdx)
  403a98:	48 8b 45 b0          	mov    -0x50(%rbp),%rax
  403a9c:	8b 00                	mov    (%rax),%eax
  403a9e:	8d 50 01             	lea    0x1(%rax),%edx
  403aa1:	48 8b 45 b0          	mov    -0x50(%rbp),%rax
  403aa5:	89 10                	mov    %edx,(%rax)
  403aa7:	48 8b 45 b8          	mov    -0x48(%rbp),%rax
  403aab:	48 83 c0 10          	add    $0x10,%rax
  403aaf:	8b 00                	mov    (%rax),%eax
  403ab1:	89 85 6c ff ff ff    	mov    %eax,-0x94(%rbp)
  403ab7:	48 8b 45 b0          	mov    -0x50(%rbp),%rax
  403abb:	8b 40 08             	mov    0x8(%rax),%eax
  403abe:	48 8b 55 b0          	mov    -0x50(%rbp),%rdx
  403ac2:	48 89 d6             	mov    %rdx,%rsi
  403ac5:	89 c7                	mov    %eax,%edi
  403ac7:	e8 f3 02 00 00       	callq  403dbf <_Z9nodeWritejPv>
  403acc:	48 8b 45 b0          	mov    -0x50(%rbp),%rax
  403ad0:	8b 40 08             	mov    0x8(%rax),%eax
  403ad3:	89 85 74 ff ff ff    	mov    %eax,-0x8c(%rbp)
  403ad9:	8b 05 51 37 20 00    	mov    0x203751(%rip),%eax        # 607230 <maxDepth>
  403adf:	39 85 54 ff ff ff    	cmp    %eax,-0xac(%rbp)
  403ae5:	0f 85 72 01 00 00    	jne    403c5d <_Z10spliteNodejfj+0x611>
  403aeb:	83 bd 68 ff ff ff 00 	cmpl   $0x0,-0x98(%rbp)
  403af2:	74 1b                	je     403b0f <_Z10spliteNodejfj+0x4c3>
  403af4:	81 bd 7c ff ff ff fb 	cmpl   $0x3fb,-0x84(%rbp)
  403afb:	03 00 00 
  403afe:	76 0f                	jbe    403b0f <_Z10spliteNodejfj+0x4c3>
  403b00:	8b 05 2a 37 20 00    	mov    0x20372a(%rip),%eax        # 607230 <maxDepth>
  403b06:	83 c0 01             	add    $0x1,%eax
  403b09:	89 05 21 37 20 00    	mov    %eax,0x203721(%rip)        # 607230 <maxDepth>
  403b0f:	8b 85 78 ff ff ff    	mov    -0x88(%rbp),%eax
  403b15:	89 c7                	mov    %eax,%edi
  403b17:	e8 0d 03 00 00       	callq  403e29 <_Z8nodeReadj>
  403b1c:	48 89 45 c0          	mov    %rax,-0x40(%rbp)
  403b20:	bf 00 20 00 00       	mov    $0x2000,%edi
  403b25:	e8 06 d9 ff ff       	callq  401430 <malloc@plt>
  403b2a:	48 89 45 c8          	mov    %rax,-0x38(%rbp)
  403b2e:	48 8b 45 c8          	mov    -0x38(%rbp),%rax
  403b32:	ba 00 20 00 00       	mov    $0x2000,%edx
  403b37:	be ff 00 00 00       	mov    $0xff,%esi
  403b3c:	48 89 c7             	mov    %rax,%rdi
  403b3f:	e8 6c d8 ff ff       	callq  4013b0 <memset@plt>
  403b44:	b8 f0 0f 00 00       	mov    $0xff0,%eax
  403b49:	48 8b 55 c0          	mov    -0x40(%rbp),%rdx
  403b4d:	48 8d b2 08 10 00 00 	lea    0x1008(%rdx),%rsi
  403b54:	48 8b 55 c8          	mov    -0x38(%rbp),%rdx
  403b58:	48 8d 4a 10          	lea    0x10(%rdx),%rcx
  403b5c:	48 89 c2             	mov    %rax,%rdx
  403b5f:	48 89 cf             	mov    %rcx,%rdi
  403b62:	e8 19 db ff ff       	callq  401680 <memcpy@plt>
  403b67:	b8 f0 0f 00 00       	mov    $0xff0,%eax
  403b6c:	48 8b 55 c0          	mov    -0x40(%rbp),%rdx
  403b70:	48 8d 8a 08 10 00 00 	lea    0x1008(%rdx),%rcx
  403b77:	48 89 c2             	mov    %rax,%rdx
  403b7a:	be ff 00 00 00       	mov    $0xff,%esi
  403b7f:	48 89 cf             	mov    %rcx,%rdi
  403b82:	e8 29 d8 ff ff       	callq  4013b0 <memset@plt>
  403b87:	48 8b 45 c8          	mov    -0x38(%rbp),%rax
  403b8b:	8b 95 6c ff ff ff    	mov    -0x94(%rbp),%edx
  403b91:	89 90 f8 1f 00 00    	mov    %edx,0x1ff8(%rax)
  403b97:	c7 45 e0 fe 01 00 00 	movl   $0x1fe,-0x20(%rbp)
  403b9e:	8b 05 94 36 20 00    	mov    0x203694(%rip),%eax        # 607238 <currentNodeCount>
  403ba4:	83 c0 01             	add    $0x1,%eax
  403ba7:	89 45 e8             	mov    %eax,-0x18(%rbp)
  403baa:	8b 05 80 36 20 00    	mov    0x203680(%rip),%eax        # 607230 <maxDepth>
  403bb0:	89 45 e4             	mov    %eax,-0x1c(%rbp)
  403bb3:	8b 85 74 ff ff ff    	mov    -0x8c(%rbp),%eax
  403bb9:	89 45 ec             	mov    %eax,-0x14(%rbp)
  403bbc:	48 8b 45 c8          	mov    -0x38(%rbp),%rax
  403bc0:	48 8d 4d e0          	lea    -0x20(%rbp),%rcx
  403bc4:	ba 10 00 00 00       	mov    $0x10,%edx
  403bc9:	48 89 ce             	mov    %rcx,%rsi
  403bcc:	48 89 c7             	mov    %rax,%rdi
  403bcf:	e8 ac da ff ff       	callq  401680 <memcpy@plt>
  403bd4:	8b 05 5e 36 20 00    	mov    0x20365e(%rip),%eax        # 607238 <currentNodeCount>
  403bda:	8d 50 01             	lea    0x1(%rax),%edx
  403bdd:	48 8b 45 c8          	mov    -0x38(%rbp),%rax
  403be1:	48 89 c6             	mov    %rax,%rsi
  403be4:	89 d7                	mov    %edx,%edi
  403be6:	e8 d4 01 00 00       	callq  403dbf <_Z9nodeWritejPv>
  403beb:	48 8b 45 c8          	mov    -0x38(%rbp),%rax
  403bef:	8b 50 08             	mov    0x8(%rax),%edx
  403bf2:	48 8b 45 c0          	mov    -0x40(%rbp),%rax
  403bf6:	89 90 f8 1f 00 00    	mov    %edx,0x1ff8(%rax)
  403bfc:	48 8b 45 c0          	mov    -0x40(%rbp),%rax
  403c00:	c7 00 ff 01 00 00    	movl   $0x1ff,(%rax)
  403c06:	8b 15 24 36 20 00    	mov    0x203624(%rip),%edx        # 607230 <maxDepth>
  403c0c:	48 8b 45 c0          	mov    -0x40(%rbp),%rax
  403c10:	89 50 04             	mov    %edx,0x4(%rax)
  403c13:	48 8b 45 c0          	mov    -0x40(%rbp),%rax
  403c17:	8b 95 74 ff ff ff    	mov    -0x8c(%rbp),%edx
  403c1d:	89 50 0c             	mov    %edx,0xc(%rax)
  403c20:	48 8b 45 c0          	mov    -0x40(%rbp),%rax
  403c24:	8b 40 08             	mov    0x8(%rax),%eax
  403c27:	48 8b 55 c0          	mov    -0x40(%rbp),%rdx
  403c2b:	48 89 d6             	mov    %rdx,%rsi
  403c2e:	89 c7                	mov    %eax,%edi
  403c30:	e8 8a 01 00 00       	callq  403dbf <_Z9nodeWritejPv>
  403c35:	48 8b 45 c8          	mov    -0x38(%rbp),%rax
  403c39:	48 89 c7             	mov    %rax,%rdi
  403c3c:	e8 7f d8 ff ff       	callq  4014c0 <free@plt>
  403c41:	48 8b 45 c0          	mov    -0x40(%rbp),%rax
  403c45:	48 89 05 dc 35 20 00 	mov    %rax,0x2035dc(%rip)        # 607228 <currentNode>
  403c4c:	8b 85 78 ff ff ff    	mov    -0x88(%rbp),%eax
  403c52:	89 05 dc 35 20 00    	mov    %eax,0x2035dc(%rip)        # 607234 <currentNodeNum>
  403c58:	e9 54 01 00 00       	jmpq   403db1 <_Z10spliteNodejfj+0x765>
  403c5d:	83 bd 68 ff ff ff 00 	cmpl   $0x0,-0x98(%rbp)
  403c64:	74 22                	je     403c88 <_Z10spliteNodejfj+0x63c>
  403c66:	81 bd 7c ff ff ff fb 	cmpl   $0x3fb,-0x84(%rbp)
  403c6d:	03 00 00 
  403c70:	76 16                	jbe    403c88 <_Z10spliteNodejfj+0x63c>
  403c72:	8b 05 b8 35 20 00    	mov    0x2035b8(%rip),%eax        # 607230 <maxDepth>
  403c78:	83 c0 01             	add    $0x1,%eax
  403c7b:	89 05 af 35 20 00    	mov    %eax,0x2035af(%rip)        # 607230 <maxDepth>
  403c81:	83 85 54 ff ff ff 01 	addl   $0x1,-0xac(%rbp)
  403c88:	8b 85 78 ff ff ff    	mov    -0x88(%rbp),%eax
  403c8e:	89 c7                	mov    %eax,%edi
  403c90:	e8 94 01 00 00       	callq  403e29 <_Z8nodeReadj>
  403c95:	48 89 45 d0          	mov    %rax,-0x30(%rbp)
  403c99:	bf 00 20 00 00       	mov    $0x2000,%edi
  403c9e:	e8 8d d7 ff ff       	callq  401430 <malloc@plt>
  403ca3:	48 89 45 d8          	mov    %rax,-0x28(%rbp)
  403ca7:	48 8b 45 d8          	mov    -0x28(%rbp),%rax
  403cab:	ba 00 20 00 00       	mov    $0x2000,%edx
  403cb0:	be ff 00 00 00       	mov    $0xff,%esi
  403cb5:	48 89 c7             	mov    %rax,%rdi
  403cb8:	e8 f3 d6 ff ff       	callq  4013b0 <memset@plt>
  403cbd:	b8 f0 0f 00 00       	mov    $0xff0,%eax
  403cc2:	48 8b 55 d0          	mov    -0x30(%rbp),%rdx
  403cc6:	48 8d b2 10 10 00 00 	lea    0x1010(%rdx),%rsi
  403ccd:	48 8b 55 d8          	mov    -0x28(%rbp),%rdx
  403cd1:	48 8d 4a 10          	lea    0x10(%rdx),%rcx
  403cd5:	48 89 c2             	mov    %rax,%rdx
  403cd8:	48 89 cf             	mov    %rcx,%rdi
  403cdb:	e8 a0 d9 ff ff       	callq  401680 <memcpy@plt>
  403ce0:	c7 45 f0 fe 01 00 00 	movl   $0x1fe,-0x10(%rbp)
  403ce7:	8b 05 4b 35 20 00    	mov    0x20354b(%rip),%eax        # 607238 <currentNodeCount>
  403ced:	83 c0 01             	add    $0x1,%eax
  403cf0:	89 45 f8             	mov    %eax,-0x8(%rbp)
  403cf3:	8b 85 54 ff ff ff    	mov    -0xac(%rbp),%eax
  403cf9:	89 45 f4             	mov    %eax,-0xc(%rbp)
  403cfc:	8b 85 74 ff ff ff    	mov    -0x8c(%rbp),%eax
  403d02:	89 45 fc             	mov    %eax,-0x4(%rbp)
  403d05:	48 8b 45 d8          	mov    -0x28(%rbp),%rax
  403d09:	48 8d 4d f0          	lea    -0x10(%rbp),%rcx
  403d0d:	ba 10 00 00 00       	mov    $0x10,%edx
  403d12:	48 89 ce             	mov    %rcx,%rsi
  403d15:	48 89 c7             	mov    %rax,%rdi
  403d18:	e8 63 d9 ff ff       	callq  401680 <memcpy@plt>
  403d1d:	8b 05 15 35 20 00    	mov    0x203515(%rip),%eax        # 607238 <currentNodeCount>
  403d23:	8d 50 01             	lea    0x1(%rax),%edx
  403d26:	48 8b 45 d8          	mov    -0x28(%rbp),%rax
  403d2a:	48 89 c6             	mov    %rax,%rsi
  403d2d:	89 d7                	mov    %edx,%edi
  403d2f:	e8 8b 00 00 00       	callq  403dbf <_Z9nodeWritejPv>
  403d34:	b8 f0 0f 00 00       	mov    $0xff0,%eax
  403d39:	48 8b 55 d0          	mov    -0x30(%rbp),%rdx
  403d3d:	48 8d 8a 10 10 00 00 	lea    0x1010(%rdx),%rcx
  403d44:	48 89 c2             	mov    %rax,%rdx
  403d47:	be ff 00 00 00       	mov    $0xff,%esi
  403d4c:	48 89 cf             	mov    %rcx,%rdi
  403d4f:	e8 5c d6 ff ff       	callq  4013b0 <memset@plt>
  403d54:	48 8b 45 d0          	mov    -0x30(%rbp),%rax
  403d58:	c7 00 ff 01 00 00    	movl   $0x1ff,(%rax)
  403d5e:	48 8b 45 d0          	mov    -0x30(%rbp),%rax
  403d62:	8b 95 54 ff ff ff    	mov    -0xac(%rbp),%edx
  403d68:	89 50 04             	mov    %edx,0x4(%rax)
  403d6b:	48 8b 45 d0          	mov    -0x30(%rbp),%rax
  403d6f:	8b 95 74 ff ff ff    	mov    -0x8c(%rbp),%edx
  403d75:	89 50 0c             	mov    %edx,0xc(%rax)
  403d78:	48 8b 45 d0          	mov    -0x30(%rbp),%rax
  403d7c:	8b 40 08             	mov    0x8(%rax),%eax
  403d7f:	48 8b 55 d0          	mov    -0x30(%rbp),%rdx
  403d83:	48 89 d6             	mov    %rdx,%rsi
  403d86:	89 c7                	mov    %eax,%edi
  403d88:	e8 32 00 00 00       	callq  403dbf <_Z9nodeWritejPv>
  403d8d:	48 8b 45 d8          	mov    -0x28(%rbp),%rax
  403d91:	48 89 c7             	mov    %rax,%rdi
  403d94:	e8 27 d7 ff ff       	callq  4014c0 <free@plt>
  403d99:	48 8b 45 d0          	mov    -0x30(%rbp),%rax
  403d9d:	48 89 05 84 34 20 00 	mov    %rax,0x203484(%rip)        # 607228 <currentNode>
  403da4:	48 8b 45 c0          	mov    -0x40(%rbp),%rax
  403da8:	8b 40 08             	mov    0x8(%rax),%eax
  403dab:	89 05 83 34 20 00    	mov    %eax,0x203483(%rip)        # 607234 <currentNodeNum>
  403db1:	48 8b 45 b0          	mov    -0x50(%rbp),%rax
  403db5:	48 89 c7             	mov    %rax,%rdi
  403db8:	e8 03 d7 ff ff       	callq  4014c0 <free@plt>
  403dbd:	c9                   	leaveq 
  403dbe:	c3                   	retq   

0000000000403dbf <_Z9nodeWritejPv>:
  403dbf:	55                   	push   %rbp
  403dc0:	48 89 e5             	mov    %rsp,%rbp
  403dc3:	48 83 ec 10          	sub    $0x10,%rsp
  403dc7:	89 7d fc             	mov    %edi,-0x4(%rbp)
  403dca:	48 89 75 f0          	mov    %rsi,-0x10(%rbp)
  403dce:	8b 05 64 34 20 00    	mov    0x203464(%rip),%eax        # 607238 <currentNodeCount>
  403dd4:	39 45 fc             	cmp    %eax,-0x4(%rbp)
  403dd7:	76 0f                	jbe    403de8 <_Z9nodeWritejPv+0x29>
  403dd9:	8b 05 59 34 20 00    	mov    0x203459(%rip),%eax        # 607238 <currentNodeCount>
  403ddf:	83 c0 01             	add    $0x1,%eax
  403de2:	89 05 50 34 20 00    	mov    %eax,0x203450(%rip)        # 607238 <currentNodeCount>
  403de8:	8b 45 fc             	mov    -0x4(%rbp),%eax
  403deb:	c1 e0 0d             	shl    $0xd,%eax
  403dee:	89 c1                	mov    %eax,%ecx
  403df0:	48 8b 05 f9 33 20 00 	mov    0x2033f9(%rip),%rax        # 6071f0 <idxFile>
  403df7:	ba 00 00 00 00       	mov    $0x0,%edx
  403dfc:	48 89 ce             	mov    %rcx,%rsi
  403dff:	48 89 c7             	mov    %rax,%rdi
  403e02:	e8 e9 d5 ff ff       	callq  4013f0 <fseek@plt>
  403e07:	48 8b 15 e2 33 20 00 	mov    0x2033e2(%rip),%rdx        # 6071f0 <idxFile>
  403e0e:	48 8b 45 f0          	mov    -0x10(%rbp),%rax
  403e12:	48 89 d1             	mov    %rdx,%rcx
  403e15:	ba 01 00 00 00       	mov    $0x1,%edx
  403e1a:	be 00 20 00 00       	mov    $0x2000,%esi
  403e1f:	48 89 c7             	mov    %rax,%rdi
  403e22:	e8 f9 d7 ff ff       	callq  401620 <fwrite@plt>
  403e27:	c9                   	leaveq 
  403e28:	c3                   	retq   

0000000000403e29 <_Z8nodeReadj>:
  403e29:	55                   	push   %rbp
  403e2a:	48 89 e5             	mov    %rsp,%rbp
  403e2d:	48 83 ec 20          	sub    $0x20,%rsp
  403e31:	89 7d ec             	mov    %edi,-0x14(%rbp)
  403e34:	8b 05 fe 33 20 00    	mov    0x2033fe(%rip),%eax        # 607238 <currentNodeCount>
  403e3a:	39 45 ec             	cmp    %eax,-0x14(%rbp)
  403e3d:	76 07                	jbe    403e46 <_Z8nodeReadj+0x1d>
  403e3f:	b8 00 00 00 00       	mov    $0x0,%eax
  403e44:	eb 67                	jmp    403ead <_Z8nodeReadj+0x84>
  403e46:	8b 45 ec             	mov    -0x14(%rbp),%eax
  403e49:	c1 e0 0d             	shl    $0xd,%eax
  403e4c:	89 c1                	mov    %eax,%ecx
  403e4e:	48 8b 05 9b 33 20 00 	mov    0x20339b(%rip),%rax        # 6071f0 <idxFile>
  403e55:	ba 00 00 00 00       	mov    $0x0,%edx
  403e5a:	48 89 ce             	mov    %rcx,%rsi
  403e5d:	48 89 c7             	mov    %rax,%rdi
  403e60:	e8 8b d5 ff ff       	callq  4013f0 <fseek@plt>
  403e65:	bf 00 20 00 00       	mov    $0x2000,%edi
  403e6a:	e8 c1 d5 ff ff       	callq  401430 <malloc@plt>
  403e6f:	48 89 45 f8          	mov    %rax,-0x8(%rbp)
  403e73:	48 8b 45 f8          	mov    -0x8(%rbp),%rax
  403e77:	ba 00 20 00 00       	mov    $0x2000,%edx
  403e7c:	be 00 00 00 00       	mov    $0x0,%esi
  403e81:	48 89 c7             	mov    %rax,%rdi
  403e84:	e8 27 d5 ff ff       	callq  4013b0 <memset@plt>
  403e89:	48 8b 15 60 33 20 00 	mov    0x203360(%rip),%rdx        # 6071f0 <idxFile>
  403e90:	48 8b 45 f8          	mov    -0x8(%rbp),%rax
  403e94:	48 89 d1             	mov    %rdx,%rcx
  403e97:	ba 01 00 00 00       	mov    $0x1,%edx
  403e9c:	be 00 20 00 00       	mov    $0x2000,%esi
  403ea1:	48 89 c7             	mov    %rax,%rdi
  403ea4:	e8 b7 d6 ff ff       	callq  401560 <fread@plt>
  403ea9:	48 8b 45 f8          	mov    -0x8(%rbp),%rax
  403ead:	c9                   	leaveq 
  403eae:	c3                   	retq   

0000000000403eaf <_Z11btreeSearchffj>:
  403eaf:	55                   	push   %rbp
  403eb0:	48 89 e5             	mov    %rsp,%rbp
  403eb3:	48 83 ec 30          	sub    $0x30,%rsp
  403eb7:	f3 0f 11 45 dc       	movss  %xmm0,-0x24(%rbp)
  403ebc:	f3 0f 11 4d d8       	movss  %xmm1,-0x28(%rbp)
  403ec1:	89 7d d4             	mov    %edi,-0x2c(%rbp)
  403ec4:	c7 45 e4 00 00 00 00 	movl   $0x0,-0x1c(%rbp)
  403ecb:	8b 45 d4             	mov    -0x2c(%rbp),%eax
  403ece:	89 45 e8             	mov    %eax,-0x18(%rbp)
  403ed1:	48 8b 05 50 33 20 00 	mov    0x203350(%rip),%rax        # 607228 <currentNode>
  403ed8:	8b 00                	mov    (%rax),%eax
  403eda:	89 45 ec             	mov    %eax,-0x14(%rbp)
  403edd:	48 8b 05 44 33 20 00 	mov    0x203344(%rip),%rax        # 607228 <currentNode>
  403ee4:	8b 40 04             	mov    0x4(%rax),%eax
  403ee7:	89 45 f0             	mov    %eax,-0x10(%rbp)
  403eea:	48 8b 05 37 33 20 00 	mov    0x203337(%rip),%rax        # 607228 <currentNode>
  403ef1:	48 83 c0 10          	add    $0x10,%rax
  403ef5:	48 89 45 f8          	mov    %rax,-0x8(%rbp)
  403ef9:	8b 05 31 33 20 00    	mov    0x203331(%rip),%eax        # 607230 <maxDepth>
  403eff:	39 45 f0             	cmp    %eax,-0x10(%rbp)
  403f02:	0f 85 f2 00 00 00    	jne    403ffa <_Z11btreeSearchffj+0x14b>
  403f08:	c7 45 e4 00 00 00 00 	movl   $0x0,-0x1c(%rbp)
  403f0f:	eb 4b                	jmp    403f5c <_Z11btreeSearchffj+0xad>
  403f11:	48 8b 45 f8          	mov    -0x8(%rbp),%rax
  403f15:	f3 0f 10 40 04       	movss  0x4(%rax),%xmm0
  403f1a:	0f 2e 45 dc          	ucomiss -0x24(%rbp),%xmm0
  403f1e:	72 1e                	jb     403f3e <_Z11btreeSearchffj+0x8f>
  403f20:	48 8b 45 f8          	mov    -0x8(%rbp),%rax
  403f24:	f3 0f 10 48 04       	movss  0x4(%rax),%xmm1
  403f29:	f3 0f 10 45 d8       	movss  -0x28(%rbp),%xmm0
  403f2e:	0f 2e c1             	ucomiss %xmm1,%xmm0
  403f31:	72 0b                	jb     403f3e <_Z11btreeSearchffj+0x8f>
  403f33:	83 45 e8 01          	addl   $0x1,-0x18(%rbp)
  403f37:	48 83 45 f8 08       	addq   $0x8,-0x8(%rbp)
  403f3c:	eb 1a                	jmp    403f58 <_Z11btreeSearchffj+0xa9>
  403f3e:	48 8b 45 f8          	mov    -0x8(%rbp),%rax
  403f42:	f3 0f 10 48 04       	movss  0x4(%rax),%xmm1
  403f47:	f3 0f 10 45 dc       	movss  -0x24(%rbp),%xmm0
  403f4c:	0f 2e c1             	ucomiss %xmm1,%xmm0
  403f4f:	77 02                	ja     403f53 <_Z11btreeSearchffj+0xa4>
  403f51:	eb 11                	jmp    403f64 <_Z11btreeSearchffj+0xb5>
  403f53:	48 83 45 f8 08       	addq   $0x8,-0x8(%rbp)
  403f58:	83 45 e4 01          	addl   $0x1,-0x1c(%rbp)
  403f5c:	8b 45 e4             	mov    -0x1c(%rbp),%eax
  403f5f:	3b 45 ec             	cmp    -0x14(%rbp),%eax
  403f62:	72 ad                	jb     403f11 <_Z11btreeSearchffj+0x62>
  403f64:	8b 45 e4             	mov    -0x1c(%rbp),%eax
  403f67:	3b 45 ec             	cmp    -0x14(%rbp),%eax
  403f6a:	0f 85 85 00 00 00    	jne    403ff5 <_Z11btreeSearchffj+0x146>
  403f70:	8b 05 ba 32 20 00    	mov    0x2032ba(%rip),%eax        # 607230 <maxDepth>
  403f76:	85 c0                	test   %eax,%eax
  403f78:	74 7b                	je     403ff5 <_Z11btreeSearchffj+0x146>
  403f7a:	48 8b 05 a7 32 20 00 	mov    0x2032a7(%rip),%rax        # 607228 <currentNode>
  403f81:	8b 80 f8 1f 00 00    	mov    0x1ff8(%rax),%eax
  403f87:	89 45 f4             	mov    %eax,-0xc(%rbp)
  403f8a:	83 7d f4 ff          	cmpl   $0xffffffff,-0xc(%rbp)
  403f8e:	74 0f                	je     403f9f <_Z11btreeSearchffj+0xf0>
  403f90:	48 8b 05 91 32 20 00 	mov    0x203291(%rip),%rax        # 607228 <currentNode>
  403f97:	8b 40 08             	mov    0x8(%rax),%eax
  403f9a:	3b 45 f4             	cmp    -0xc(%rbp),%eax
  403f9d:	75 08                	jne    403fa7 <_Z11btreeSearchffj+0xf8>
  403f9f:	8b 45 e8             	mov    -0x18(%rbp),%eax
  403fa2:	e9 50 01 00 00       	jmpq   4040f7 <_Z11btreeSearchffj+0x248>
  403fa7:	48 8b 05 7a 32 20 00 	mov    0x20327a(%rip),%rax        # 607228 <currentNode>
  403fae:	48 89 c7             	mov    %rax,%rdi
  403fb1:	e8 0a d5 ff ff       	callq  4014c0 <free@plt>
  403fb6:	48 c7 05 67 32 20 00 	movq   $0x0,0x203267(%rip)        # 607228 <currentNode>
  403fbd:	00 00 00 00 
  403fc1:	8b 45 f4             	mov    -0xc(%rbp),%eax
  403fc4:	89 c7                	mov    %eax,%edi
  403fc6:	e8 5e fe ff ff       	callq  403e29 <_Z8nodeReadj>
  403fcb:	48 89 05 56 32 20 00 	mov    %rax,0x203256(%rip)        # 607228 <currentNode>
  403fd2:	8b 4d e8             	mov    -0x18(%rbp),%ecx
  403fd5:	8b 55 d8             	mov    -0x28(%rbp),%edx
  403fd8:	8b 45 dc             	mov    -0x24(%rbp),%eax
  403fdb:	89 cf                	mov    %ecx,%edi
  403fdd:	89 55 d0             	mov    %edx,-0x30(%rbp)
  403fe0:	f3 0f 10 4d d0       	movss  -0x30(%rbp),%xmm1
  403fe5:	89 45 d0             	mov    %eax,-0x30(%rbp)
  403fe8:	f3 0f 10 45 d0       	movss  -0x30(%rbp),%xmm0
  403fed:	e8 bd fe ff ff       	callq  403eaf <_Z11btreeSearchffj>
  403ff2:	89 45 e8             	mov    %eax,-0x18(%rbp)
  403ff5:	e9 fa 00 00 00       	jmpq   4040f4 <_Z11btreeSearchffj+0x245>
  403ffa:	c7 45 e4 00 00 00 00 	movl   $0x0,-0x1c(%rbp)
  404001:	eb 7e                	jmp    404081 <_Z11btreeSearchffj+0x1d2>
  404003:	48 8b 45 f8          	mov    -0x8(%rbp),%rax
  404007:	f3 0f 10 40 04       	movss  0x4(%rax),%xmm0
  40400c:	0f 2e 45 dc          	ucomiss -0x24(%rbp),%xmm0
  404010:	72 53                	jb     404065 <_Z11btreeSearchffj+0x1b6>
  404012:	48 8b 05 0f 32 20 00 	mov    0x20320f(%rip),%rax        # 607228 <currentNode>
  404019:	48 89 c7             	mov    %rax,%rdi
  40401c:	e8 9f d4 ff ff       	callq  4014c0 <free@plt>
  404021:	48 c7 05 fc 31 20 00 	movq   $0x0,0x2031fc(%rip)        # 607228 <currentNode>
  404028:	00 00 00 00 
  40402c:	48 8b 45 f8          	mov    -0x8(%rbp),%rax
  404030:	8b 00                	mov    (%rax),%eax
  404032:	89 c7                	mov    %eax,%edi
  404034:	e8 f0 fd ff ff       	callq  403e29 <_Z8nodeReadj>
  404039:	48 89 05 e8 31 20 00 	mov    %rax,0x2031e8(%rip)        # 607228 <currentNode>
  404040:	8b 4d e8             	mov    -0x18(%rbp),%ecx
  404043:	8b 55 d8             	mov    -0x28(%rbp),%edx
  404046:	8b 45 dc             	mov    -0x24(%rbp),%eax
  404049:	89 cf                	mov    %ecx,%edi
  40404b:	89 55 d0             	mov    %edx,-0x30(%rbp)
  40404e:	f3 0f 10 4d d0       	movss  -0x30(%rbp),%xmm1
  404053:	89 45 d0             	mov    %eax,-0x30(%rbp)
  404056:	f3 0f 10 45 d0       	movss  -0x30(%rbp),%xmm0
  40405b:	e8 4f fe ff ff       	callq  403eaf <_Z11btreeSearchffj>
  404060:	89 45 e8             	mov    %eax,-0x18(%rbp)
  404063:	eb 28                	jmp    40408d <_Z11btreeSearchffj+0x1de>
  404065:	48 8b 45 f8          	mov    -0x8(%rbp),%rax
  404069:	f3 0f 10 48 04       	movss  0x4(%rax),%xmm1
  40406e:	f3 0f 10 45 dc       	movss  -0x24(%rbp),%xmm0
  404073:	0f 2e c1             	ucomiss %xmm1,%xmm0
  404076:	76 05                	jbe    40407d <_Z11btreeSearchffj+0x1ce>
  404078:	48 83 45 f8 08       	addq   $0x8,-0x8(%rbp)
  40407d:	83 45 e4 01          	addl   $0x1,-0x1c(%rbp)
  404081:	8b 45 e4             	mov    -0x1c(%rbp),%eax
  404084:	3b 45 ec             	cmp    -0x14(%rbp),%eax
  404087:	0f 82 76 ff ff ff    	jb     404003 <_Z11btreeSearchffj+0x154>
  40408d:	8b 45 e4             	mov    -0x1c(%rbp),%eax
  404090:	3b 45 ec             	cmp    -0x14(%rbp),%eax
  404093:	75 5f                	jne    4040f4 <_Z11btreeSearchffj+0x245>
  404095:	48 8b 05 8c 31 20 00 	mov    0x20318c(%rip),%rax        # 607228 <currentNode>
  40409c:	ba 00 20 00 00       	mov    $0x2000,%edx
  4040a1:	be 00 00 00 00       	mov    $0x0,%esi
  4040a6:	48 89 c7             	mov    %rax,%rdi
  4040a9:	e8 02 d3 ff ff       	callq  4013b0 <memset@plt>
  4040ae:	48 8b 05 73 31 20 00 	mov    0x203173(%rip),%rax        # 607228 <currentNode>
  4040b5:	48 89 c7             	mov    %rax,%rdi
  4040b8:	e8 03 d4 ff ff       	callq  4014c0 <free@plt>
  4040bd:	48 8b 45 f8          	mov    -0x8(%rbp),%rax
  4040c1:	8b 00                	mov    (%rax),%eax
  4040c3:	89 c7                	mov    %eax,%edi
  4040c5:	e8 5f fd ff ff       	callq  403e29 <_Z8nodeReadj>
  4040ca:	48 89 05 57 31 20 00 	mov    %rax,0x203157(%rip)        # 607228 <currentNode>
  4040d1:	8b 4d e8             	mov    -0x18(%rbp),%ecx
  4040d4:	8b 55 d8             	mov    -0x28(%rbp),%edx
  4040d7:	8b 45 dc             	mov    -0x24(%rbp),%eax
  4040da:	89 cf                	mov    %ecx,%edi
  4040dc:	89 55 d0             	mov    %edx,-0x30(%rbp)
  4040df:	f3 0f 10 4d d0       	movss  -0x30(%rbp),%xmm1
  4040e4:	89 45 d0             	mov    %eax,-0x30(%rbp)
  4040e7:	f3 0f 10 45 d0       	movss  -0x30(%rbp),%xmm0
  4040ec:	e8 be fd ff ff       	callq  403eaf <_Z11btreeSearchffj>
  4040f1:	89 45 e8             	mov    %eax,-0x18(%rbp)
  4040f4:	8b 45 e8             	mov    -0x18(%rbp),%eax
  4040f7:	c9                   	leaveq 
  4040f8:	c3                   	retq   

00000000004040f9 <_Z41__static_initialization_and_destruction_0ii>:
  4040f9:	55                   	push   %rbp
  4040fa:	48 89 e5             	mov    %rsp,%rbp
  4040fd:	48 83 ec 10          	sub    $0x10,%rsp
  404101:	89 7d fc             	mov    %edi,-0x4(%rbp)
  404104:	89 75 f8             	mov    %esi,-0x8(%rbp)
  404107:	83 7d fc 01          	cmpl   $0x1,-0x4(%rbp)
  40410b:	75 45                	jne    404152 <_Z41__static_initialization_and_destruction_0ii+0x59>
  40410d:	81 7d f8 ff ff 00 00 	cmpl   $0xffff,-0x8(%rbp)
  404114:	75 3c                	jne    404152 <_Z41__static_initialization_and_destruction_0ii+0x59>
  404116:	bf 68 92 60 00       	mov    $0x609268,%edi
  40411b:	e8 00 d3 ff ff       	callq  401420 <_ZNSt8ios_base4InitC1Ev@plt>
  404120:	ba b8 71 60 00       	mov    $0x6071b8,%edx
  404125:	be 68 92 60 00       	mov    $0x609268,%esi
  40412a:	bf 80 14 40 00       	mov    $0x401480,%edi
  40412f:	e8 3c d3 ff ff       	callq  401470 <__cxa_atexit@plt>
  404134:	bf 50 92 60 00       	mov    $0x609250,%edi
  404139:	e8 3e 00 00 00       	callq  40417c <_ZNSt6vectorI8SaveInfoSaIS0_EEC1Ev>
  40413e:	ba b8 71 60 00       	mov    $0x6071b8,%edx
  404143:	be 50 92 60 00       	mov    $0x609250,%esi
  404148:	bf c8 4e 40 00       	mov    $0x404ec8,%edi
  40414d:	e8 1e d3 ff ff       	callq  401470 <__cxa_atexit@plt>
  404152:	c9                   	leaveq 
  404153:	c3                   	retq   

0000000000404154 <_GLOBAL__sub_I_InsertCount>:
  404154:	55                   	push   %rbp
  404155:	48 89 e5             	mov    %rsp,%rbp
  404158:	be ff ff 00 00       	mov    $0xffff,%esi
  40415d:	bf 01 00 00 00       	mov    $0x1,%edi
  404162:	e8 92 ff ff ff       	callq  4040f9 <_Z41__static_initialization_and_destruction_0ii>
  404167:	5d                   	pop    %rbp
  404168:	c3                   	retq   

0000000000404169 <_ZnwmPv>:
  404169:	55                   	push   %rbp
  40416a:	48 89 e5             	mov    %rsp,%rbp
  40416d:	48 89 7d f8          	mov    %rdi,-0x8(%rbp)
  404171:	48 89 75 f0          	mov    %rsi,-0x10(%rbp)
  404175:	48 8b 45 f0          	mov    -0x10(%rbp),%rax
  404179:	5d                   	pop    %rbp
  40417a:	c3                   	retq   
  40417b:	90                   	nop

000000000040417c <_ZNSt6vectorI8SaveInfoSaIS0_EEC1Ev>:
  40417c:	55                   	push   %rbp
  40417d:	48 89 e5             	mov    %rsp,%rbp
  404180:	48 83 ec 10          	sub    $0x10,%rsp
  404184:	48 89 7d f8          	mov    %rdi,-0x8(%rbp)
  404188:	48 8b 45 f8          	mov    -0x8(%rbp),%rax
  40418c:	48 89 c7             	mov    %rax,%rdi
  40418f:	e8 ca 01 00 00       	callq  40435e <_ZNSt12_Vector_baseI8SaveInfoSaIS0_EEC1Ev>
  404194:	c9                   	leaveq 
  404195:	c3                   	retq   

0000000000404196 <_ZNSt6vectorI8SaveInfoSaIS0_EE9push_backERKS0_>:
  404196:	55                   	push   %rbp
  404197:	48 89 e5             	mov    %rsp,%rbp
  40419a:	48 83 ec 10          	sub    $0x10,%rsp
  40419e:	48 89 7d f8          	mov    %rdi,-0x8(%rbp)
  4041a2:	48 89 75 f0          	mov    %rsi,-0x10(%rbp)
  4041a6:	48 8b 45 f8          	mov    -0x8(%rbp),%rax
  4041aa:	48 8b 50 08          	mov    0x8(%rax),%rdx
  4041ae:	48 8b 45 f8          	mov    -0x8(%rbp),%rax
  4041b2:	48 8b 40 10          	mov    0x10(%rax),%rax
  4041b6:	48 39 c2             	cmp    %rax,%rdx
  4041b9:	74 31                	je     4041ec <_ZNSt6vectorI8SaveInfoSaIS0_EE9push_backERKS0_+0x56>
  4041bb:	48 8b 45 f8          	mov    -0x8(%rbp),%rax
  4041bf:	48 8b 48 08          	mov    0x8(%rax),%rcx
  4041c3:	48 8b 45 f8          	mov    -0x8(%rbp),%rax
  4041c7:	48 8b 55 f0          	mov    -0x10(%rbp),%rdx
  4041cb:	48 89 ce             	mov    %rcx,%rsi
  4041ce:	48 89 c7             	mov    %rax,%rdi
  4041d1:	e8 13 02 00 00       	callq  4043e9 <_ZN9__gnu_cxx14__alloc_traitsISaI8SaveInfoEE9constructIS1_EEvRS2_PS1_RKT_>
  4041d6:	48 8b 45 f8          	mov    -0x8(%rbp),%rax
  4041da:	48 8b 40 08          	mov    0x8(%rax),%rax
  4041de:	48 8d 50 08          	lea    0x8(%rax),%rdx
  4041e2:	48 8b 45 f8          	mov    -0x8(%rbp),%rax
  4041e6:	48 89 50 08          	mov    %rdx,0x8(%rax)
  4041ea:	eb 22                	jmp    40420e <_ZNSt6vectorI8SaveInfoSaIS0_EE9push_backERKS0_+0x78>
  4041ec:	48 8b 45 f8          	mov    -0x8(%rbp),%rax
  4041f0:	48 89 c7             	mov    %rax,%rdi
  4041f3:	e8 08 05 00 00       	callq  404700 <_ZNSt6vectorI8SaveInfoSaIS0_EE3endEv>
  4041f8:	48 89 c1             	mov    %rax,%rcx
  4041fb:	48 8b 55 f0          	mov    -0x10(%rbp),%rdx
  4041ff:	48 8b 45 f8          	mov    -0x8(%rbp),%rax
  404203:	48 89 ce             	mov    %rcx,%rsi
  404206:	48 89 c7             	mov    %rax,%rdi
  404209:	e8 08 02 00 00       	callq  404416 <_ZNSt6vectorI8SaveInfoSaIS0_EE13_M_insert_auxEN9__gnu_cxx17__normal_iteratorIPS0_S2_EERKS0_>
  40420e:	c9                   	leaveq 
  40420f:	c3                   	retq   

0000000000404210 <_ZNKSt6vectorI8SaveInfoSaIS0_EE4sizeEv>:
  404210:	55                   	push   %rbp
  404211:	48 89 e5             	mov    %rsp,%rbp
  404214:	48 89 7d f8          	mov    %rdi,-0x8(%rbp)
  404218:	48 8b 45 f8          	mov    -0x8(%rbp),%rax
  40421c:	48 8b 40 08          	mov    0x8(%rax),%rax
  404220:	48 89 c2             	mov    %rax,%rdx
  404223:	48 8b 45 f8          	mov    -0x8(%rbp),%rax
  404227:	48 8b 00             	mov    (%rax),%rax
  40422a:	48 29 c2             	sub    %rax,%rdx
  40422d:	48 89 d0             	mov    %rdx,%rax
  404230:	48 c1 f8 03          	sar    $0x3,%rax
  404234:	5d                   	pop    %rbp
  404235:	c3                   	retq   

0000000000404236 <_ZNSt6vectorI8SaveInfoSaIS0_EEixEm>:
  404236:	55                   	push   %rbp
  404237:	48 89 e5             	mov    %rsp,%rbp
  40423a:	48 89 7d f8          	mov    %rdi,-0x8(%rbp)
  40423e:	48 89 75 f0          	mov    %rsi,-0x10(%rbp)
  404242:	48 8b 45 f8          	mov    -0x8(%rbp),%rax
  404246:	48 8b 00             	mov    (%rax),%rax
  404249:	48 8b 55 f0          	mov    -0x10(%rbp),%rdx
  40424d:	48 c1 e2 03          	shl    $0x3,%rdx
  404251:	48 01 d0             	add    %rdx,%rax
  404254:	5d                   	pop    %rbp
  404255:	c3                   	retq   

0000000000404256 <_ZSteqIcSt11char_traitsIcESaIcEEbRKSbIT_T0_T1_EPKS3_>:
  404256:	55                   	push   %rbp
  404257:	48 89 e5             	mov    %rsp,%rbp
  40425a:	48 83 ec 10          	sub    $0x10,%rsp
  40425e:	48 89 7d f8          	mov    %rdi,-0x8(%rbp)
  404262:	48 89 75 f0          	mov    %rsi,-0x10(%rbp)
  404266:	48 8b 55 f0          	mov    -0x10(%rbp),%rdx
  40426a:	48 8b 45 f8          	mov    -0x8(%rbp),%rax
  40426e:	48 89 d6             	mov    %rdx,%rsi
  404271:	48 89 c7             	mov    %rax,%rdi
  404274:	e8 67 d2 ff ff       	callq  4014e0 <_ZNKSs7compareEPKc@plt>
  404279:	85 c0                	test   %eax,%eax
  40427b:	0f 94 c0             	sete   %al
  40427e:	c9                   	leaveq 
  40427f:	c3                   	retq   

0000000000404280 <_ZStplIcSt11char_traitsIcESaIcEESbIT_T0_T1_ERKS6_PKS3_>:
  404280:	55                   	push   %rbp
  404281:	48 89 e5             	mov    %rsp,%rbp
  404284:	53                   	push   %rbx
  404285:	48 83 ec 28          	sub    $0x28,%rsp
  404289:	48 89 7d e8          	mov    %rdi,-0x18(%rbp)
  40428d:	48 89 75 e0          	mov    %rsi,-0x20(%rbp)
  404291:	48 89 55 d8          	mov    %rdx,-0x28(%rbp)
  404295:	48 8b 55 e0          	mov    -0x20(%rbp),%rdx
  404299:	48 8b 45 e8          	mov    -0x18(%rbp),%rax
  40429d:	48 89 d6             	mov    %rdx,%rsi
  4042a0:	48 89 c7             	mov    %rax,%rdi
  4042a3:	e8 b8 d1 ff ff       	callq  401460 <_ZNSsC1ERKSs@plt>
  4042a8:	48 8b 55 d8          	mov    -0x28(%rbp),%rdx
  4042ac:	48 8b 45 e8          	mov    -0x18(%rbp),%rax
  4042b0:	48 89 d6             	mov    %rdx,%rsi
  4042b3:	48 89 c7             	mov    %rax,%rdi
  4042b6:	e8 e5 d2 ff ff       	callq  4015a0 <_ZNSs6appendEPKc@plt>
  4042bb:	eb 1a                	jmp    4042d7 <_ZStplIcSt11char_traitsIcESaIcEESbIT_T0_T1_ERKS6_PKS3_+0x57>
  4042bd:	48 89 c3             	mov    %rax,%rbx
  4042c0:	48 8b 45 e8          	mov    -0x18(%rbp),%rax
  4042c4:	48 89 c7             	mov    %rax,%rdi
  4042c7:	e8 e4 d1 ff ff       	callq  4014b0 <_ZNSsD1Ev@plt>
  4042cc:	48 89 d8             	mov    %rbx,%rax
  4042cf:	48 89 c7             	mov    %rax,%rdi
  4042d2:	e8 89 d3 ff ff       	callq  401660 <_Unwind_Resume@plt>
  4042d7:	48 8b 45 e8          	mov    -0x18(%rbp),%rax
  4042db:	48 83 c4 28          	add    $0x28,%rsp
  4042df:	5b                   	pop    %rbx
  4042e0:	5d                   	pop    %rbp
  4042e1:	c3                   	retq   

00000000004042e2 <_ZStplIcSt11char_traitsIcESaIcEESbIT_T0_T1_ERKS6_S8_>:
  4042e2:	55                   	push   %rbp
  4042e3:	48 89 e5             	mov    %rsp,%rbp
  4042e6:	53                   	push   %rbx
  4042e7:	48 83 ec 28          	sub    $0x28,%rsp
  4042eb:	48 89 7d e8          	mov    %rdi,-0x18(%rbp)
  4042ef:	48 89 75 e0          	mov    %rsi,-0x20(%rbp)
  4042f3:	48 89 55 d8          	mov    %rdx,-0x28(%rbp)
  4042f7:	48 8b 55 e0          	mov    -0x20(%rbp),%rdx
  4042fb:	48 8b 45 e8          	mov    -0x18(%rbp),%rax
  4042ff:	48 89 d6             	mov    %rdx,%rsi
  404302:	48 89 c7             	mov    %rax,%rdi
  404305:	e8 56 d1 ff ff       	callq  401460 <_ZNSsC1ERKSs@plt>
  40430a:	48 8b 55 d8          	mov    -0x28(%rbp),%rdx
  40430e:	48 8b 45 e8          	mov    -0x18(%rbp),%rax
  404312:	48 89 d6             	mov    %rdx,%rsi
  404315:	48 89 c7             	mov    %rax,%rdi
  404318:	e8 73 d3 ff ff       	callq  401690 <_ZNSs6appendERKSs@plt>
  40431d:	eb 1a                	jmp    404339 <_ZStplIcSt11char_traitsIcESaIcEESbIT_T0_T1_ERKS6_S8_+0x57>
  40431f:	48 89 c3             	mov    %rax,%rbx
  404322:	48 8b 45 e8          	mov    -0x18(%rbp),%rax
  404326:	48 89 c7             	mov    %rax,%rdi
  404329:	e8 82 d1 ff ff       	callq  4014b0 <_ZNSsD1Ev@plt>
  40432e:	48 89 d8             	mov    %rbx,%rax
  404331:	48 89 c7             	mov    %rax,%rdi
  404334:	e8 27 d3 ff ff       	callq  401660 <_Unwind_Resume@plt>
  404339:	48 8b 45 e8          	mov    -0x18(%rbp),%rax
  40433d:	48 83 c4 28          	add    $0x28,%rsp
  404341:	5b                   	pop    %rbx
  404342:	5d                   	pop    %rbp
  404343:	c3                   	retq   

0000000000404344 <_ZNSt12_Vector_baseI8SaveInfoSaIS0_EE12_Vector_implD1Ev>:
  404344:	55                   	push   %rbp
  404345:	48 89 e5             	mov    %rsp,%rbp
  404348:	48 83 ec 10          	sub    $0x10,%rsp
  40434c:	48 89 7d f8          	mov    %rdi,-0x8(%rbp)
  404350:	48 8b 45 f8          	mov    -0x8(%rbp),%rax
  404354:	48 89 c7             	mov    %rax,%rdi
  404357:	e8 0c 04 00 00       	callq  404768 <_ZNSaI8SaveInfoED1Ev>
  40435c:	c9                   	leaveq 
  40435d:	c3                   	retq   

000000000040435e <_ZNSt12_Vector_baseI8SaveInfoSaIS0_EEC1Ev>:
  40435e:	55                   	push   %rbp
  40435f:	48 89 e5             	mov    %rsp,%rbp
  404362:	48 83 ec 10          	sub    $0x10,%rsp
  404366:	48 89 7d f8          	mov    %rdi,-0x8(%rbp)
  40436a:	48 8b 45 f8          	mov    -0x8(%rbp),%rax
  40436e:	48 89 c7             	mov    %rax,%rdi
  404371:	e8 b4 03 00 00       	callq  40472a <_ZNSt12_Vector_baseI8SaveInfoSaIS0_EE12_Vector_implC1Ev>
  404376:	c9                   	leaveq 
  404377:	c3                   	retq   

0000000000404378 <_ZNSt12_Vector_baseI8SaveInfoSaIS0_EED1Ev>:
  404378:	55                   	push   %rbp
  404379:	48 89 e5             	mov    %rsp,%rbp
  40437c:	53                   	push   %rbx
  40437d:	48 83 ec 18          	sub    $0x18,%rsp
  404381:	48 89 7d e8          	mov    %rdi,-0x18(%rbp)
  404385:	48 8b 45 e8          	mov    -0x18(%rbp),%rax
  404389:	48 8b 40 10          	mov    0x10(%rax),%rax
  40438d:	48 89 c2             	mov    %rax,%rdx
  404390:	48 8b 45 e8          	mov    -0x18(%rbp),%rax
  404394:	48 8b 00             	mov    (%rax),%rax
  404397:	48 29 c2             	sub    %rax,%rdx
  40439a:	48 89 d0             	mov    %rdx,%rax
  40439d:	48 c1 f8 03          	sar    $0x3,%rax
  4043a1:	48 89 c2             	mov    %rax,%rdx
  4043a4:	48 8b 45 e8          	mov    -0x18(%rbp),%rax
  4043a8:	48 8b 08             	mov    (%rax),%rcx
  4043ab:	48 8b 45 e8          	mov    -0x18(%rbp),%rax
  4043af:	48 89 ce             	mov    %rcx,%rsi
  4043b2:	48 89 c7             	mov    %rax,%rdi
  4043b5:	e8 c8 03 00 00       	callq  404782 <_ZNSt12_Vector_baseI8SaveInfoSaIS0_EE13_M_deallocateEPS0_m>
  4043ba:	48 8b 45 e8          	mov    -0x18(%rbp),%rax
  4043be:	48 89 c7             	mov    %rax,%rdi
  4043c1:	e8 7e ff ff ff       	callq  404344 <_ZNSt12_Vector_baseI8SaveInfoSaIS0_EE12_Vector_implD1Ev>
  4043c6:	eb 1a                	jmp    4043e2 <_ZNSt12_Vector_baseI8SaveInfoSaIS0_EED1Ev+0x6a>
  4043c8:	48 89 c3             	mov    %rax,%rbx
  4043cb:	48 8b 45 e8          	mov    -0x18(%rbp),%rax
  4043cf:	48 89 c7             	mov    %rax,%rdi
  4043d2:	e8 6d ff ff ff       	callq  404344 <_ZNSt12_Vector_baseI8SaveInfoSaIS0_EE12_Vector_implD1Ev>
  4043d7:	48 89 d8             	mov    %rbx,%rax
  4043da:	48 89 c7             	mov    %rax,%rdi
  4043dd:	e8 7e d2 ff ff       	callq  401660 <_Unwind_Resume@plt>
  4043e2:	48 83 c4 18          	add    $0x18,%rsp
  4043e6:	5b                   	pop    %rbx
  4043e7:	5d                   	pop    %rbp
  4043e8:	c3                   	retq   

00000000004043e9 <_ZN9__gnu_cxx14__alloc_traitsISaI8SaveInfoEE9constructIS1_EEvRS2_PS1_RKT_>:
  4043e9:	55                   	push   %rbp
  4043ea:	48 89 e5             	mov    %rsp,%rbp
  4043ed:	48 83 ec 20          	sub    $0x20,%rsp
  4043f1:	48 89 7d f8          	mov    %rdi,-0x8(%rbp)
  4043f5:	48 89 75 f0          	mov    %rsi,-0x10(%rbp)
  4043f9:	48 89 55 e8          	mov    %rdx,-0x18(%rbp)
  4043fd:	48 8b 55 e8          	mov    -0x18(%rbp),%rdx
  404401:	48 8b 4d f0          	mov    -0x10(%rbp),%rcx
  404405:	48 8b 45 f8          	mov    -0x8(%rbp),%rax
  404409:	48 89 ce             	mov    %rcx,%rsi
  40440c:	48 89 c7             	mov    %rax,%rdi
  40440f:	e8 a2 03 00 00       	callq  4047b6 <_ZN9__gnu_cxx13new_allocatorI8SaveInfoE9constructEPS1_RKS1_>
  404414:	c9                   	leaveq 
  404415:	c3                   	retq   

0000000000404416 <_ZNSt6vectorI8SaveInfoSaIS0_EE13_M_insert_auxEN9__gnu_cxx17__normal_iteratorIPS0_S2_EERKS0_>:
  404416:	55                   	push   %rbp
  404417:	48 89 e5             	mov    %rsp,%rbp
  40441a:	41 54                	push   %r12
  40441c:	53                   	push   %rbx
  40441d:	48 83 ec 50          	sub    $0x50,%rsp
  404421:	48 89 7d b8          	mov    %rdi,-0x48(%rbp)
  404425:	48 89 75 b0          	mov    %rsi,-0x50(%rbp)
  404429:	48 89 55 a8          	mov    %rdx,-0x58(%rbp)
  40442d:	48 8b 45 b8          	mov    -0x48(%rbp),%rax
  404431:	48 8b 50 08          	mov    0x8(%rax),%rdx
  404435:	48 8b 45 b8          	mov    -0x48(%rbp),%rax
  404439:	48 8b 40 10          	mov    0x10(%rax),%rax
  40443d:	48 39 c2             	cmp    %rax,%rdx
  404440:	0f 84 8f 00 00 00    	je     4044d5 <_ZNSt6vectorI8SaveInfoSaIS0_EE13_M_insert_auxEN9__gnu_cxx17__normal_iteratorIPS0_S2_EERKS0_+0xbf>
  404446:	48 8b 45 b8          	mov    -0x48(%rbp),%rax
  40444a:	48 8b 40 08          	mov    0x8(%rax),%rax
  40444e:	48 8d 50 f8          	lea    -0x8(%rax),%rdx
  404452:	48 8b 45 b8          	mov    -0x48(%rbp),%rax
  404456:	48 8b 48 08          	mov    0x8(%rax),%rcx
  40445a:	48 8b 45 b8          	mov    -0x48(%rbp),%rax
  40445e:	48 89 ce             	mov    %rcx,%rsi
  404461:	48 89 c7             	mov    %rax,%rdi
  404464:	e8 80 ff ff ff       	callq  4043e9 <_ZN9__gnu_cxx14__alloc_traitsISaI8SaveInfoEE9constructIS1_EEvRS2_PS1_RKT_>
  404469:	48 8b 45 b8          	mov    -0x48(%rbp),%rax
  40446d:	48 8b 40 08          	mov    0x8(%rax),%rax
  404471:	48 8d 50 08          	lea    0x8(%rax),%rdx
  404475:	48 8b 45 b8          	mov    -0x48(%rbp),%rax
  404479:	48 89 50 08          	mov    %rdx,0x8(%rax)
  40447d:	48 8b 45 a8          	mov    -0x58(%rbp),%rax
  404481:	48 8b 00             	mov    (%rax),%rax
  404484:	48 89 45 c0          	mov    %rax,-0x40(%rbp)
  404488:	48 8b 45 b8          	mov    -0x48(%rbp),%rax
  40448c:	48 8b 40 08          	mov    0x8(%rax),%rax
  404490:	4c 8d 60 f8          	lea    -0x8(%rax),%r12
  404494:	48 8b 45 b8          	mov    -0x48(%rbp),%rax
  404498:	48 8b 40 08          	mov    0x8(%rax),%rax
  40449c:	48 8d 58 f0          	lea    -0x10(%rax),%rbx
  4044a0:	48 8d 45 b0          	lea    -0x50(%rbp),%rax
  4044a4:	48 89 c7             	mov    %rax,%rdi
  4044a7:	e8 40 03 00 00       	callq  4047ec <_ZNK9__gnu_cxx17__normal_iteratorIP8SaveInfoSt6vectorIS1_SaIS1_EEE4baseEv>
  4044ac:	48 8b 00             	mov    (%rax),%rax
  4044af:	4c 89 e2             	mov    %r12,%rdx
  4044b2:	48 89 de             	mov    %rbx,%rsi
  4044b5:	48 89 c7             	mov    %rax,%rdi
  4044b8:	e8 3d 03 00 00       	callq  4047fa <_ZSt13copy_backwardIP8SaveInfoS1_ET0_T_S3_S2_>
  4044bd:	48 8d 45 b0          	lea    -0x50(%rbp),%rax
  4044c1:	48 89 c7             	mov    %rax,%rdi
  4044c4:	e8 77 03 00 00       	callq  404840 <_ZNK9__gnu_cxx17__normal_iteratorIP8SaveInfoSt6vectorIS1_SaIS1_EEEdeEv>
  4044c9:	48 8b 55 c0          	mov    -0x40(%rbp),%rdx
  4044cd:	48 89 10             	mov    %rdx,(%rax)
  4044d0:	e9 21 02 00 00       	jmpq   4046f6 <_ZNSt6vectorI8SaveInfoSaIS0_EE13_M_insert_auxEN9__gnu_cxx17__normal_iteratorIPS0_S2_EERKS0_+0x2e0>
  4044d5:	48 8b 45 b8          	mov    -0x48(%rbp),%rax
  4044d9:	ba 49 50 40 00       	mov    $0x405049,%edx
  4044de:	be 01 00 00 00       	mov    $0x1,%esi
  4044e3:	48 89 c7             	mov    %rax,%rdi
  4044e6:	e8 67 03 00 00       	callq  404852 <_ZNKSt6vectorI8SaveInfoSaIS0_EE12_M_check_lenEmPKc>
  4044eb:	48 89 45 d8          	mov    %rax,-0x28(%rbp)
  4044ef:	48 8b 45 b8          	mov    -0x48(%rbp),%rax
  4044f3:	48 89 c7             	mov    %rax,%rdi
  4044f6:	e8 21 04 00 00       	callq  40491c <_ZNSt6vectorI8SaveInfoSaIS0_EE5beginEv>
  4044fb:	48 89 45 c0          	mov    %rax,-0x40(%rbp)
  4044ff:	48 8d 55 c0          	lea    -0x40(%rbp),%rdx
  404503:	48 8d 45 b0          	lea    -0x50(%rbp),%rax
  404507:	48 89 d6             	mov    %rdx,%rsi
  40450a:	48 89 c7             	mov    %rax,%rdi
  40450d:	e8 2f 04 00 00       	callq  404941 <_ZN9__gnu_cxxmiIP8SaveInfoSt6vectorIS1_SaIS1_EEEENS_17__normal_iteratorIT_T0_E15difference_typeERKS9_SC_>
  404512:	48 89 45 e0          	mov    %rax,-0x20(%rbp)
  404516:	48 8b 45 b8          	mov    -0x48(%rbp),%rax
  40451a:	48 8b 55 d8          	mov    -0x28(%rbp),%rdx
  40451e:	48 89 d6             	mov    %rdx,%rsi
  404521:	48 89 c7             	mov    %rax,%rdi
  404524:	e8 5b 04 00 00       	callq  404984 <_ZNSt12_Vector_baseI8SaveInfoSaIS0_EE11_M_allocateEm>
  404529:	48 89 45 e8          	mov    %rax,-0x18(%rbp)
  40452d:	48 8b 45 e8          	mov    -0x18(%rbp),%rax
  404531:	48 89 45 d0          	mov    %rax,-0x30(%rbp)
  404535:	48 8b 45 e0          	mov    -0x20(%rbp),%rax
  404539:	48 8d 14 c5 00 00 00 	lea    0x0(,%rax,8),%rdx
  404540:	00 
  404541:	48 8b 45 e8          	mov    -0x18(%rbp),%rax
  404545:	48 8d 0c 02          	lea    (%rdx,%rax,1),%rcx
  404549:	48 8b 45 b8          	mov    -0x48(%rbp),%rax
  40454d:	48 8b 55 a8          	mov    -0x58(%rbp),%rdx
  404551:	48 89 ce             	mov    %rcx,%rsi
  404554:	48 89 c7             	mov    %rax,%rdi
  404557:	e8 8d fe ff ff       	callq  4043e9 <_ZN9__gnu_cxx14__alloc_traitsISaI8SaveInfoEE9constructIS1_EEvRS2_PS1_RKT_>
  40455c:	48 c7 45 d0 00 00 00 	movq   $0x0,-0x30(%rbp)
  404563:	00 
  404564:	48 8b 45 b8          	mov    -0x48(%rbp),%rax
  404568:	48 89 c7             	mov    %rax,%rdi
  40456b:	e8 4c 04 00 00       	callq  4049bc <_ZNSt12_Vector_baseI8SaveInfoSaIS0_EE19_M_get_Tp_allocatorEv>
  404570:	48 89 c3             	mov    %rax,%rbx
  404573:	48 8d 45 b0          	lea    -0x50(%rbp),%rax
  404577:	48 89 c7             	mov    %rax,%rdi
  40457a:	e8 6d 02 00 00       	callq  4047ec <_ZNK9__gnu_cxx17__normal_iteratorIP8SaveInfoSt6vectorIS1_SaIS1_EEE4baseEv>
  40457f:	48 8b 30             	mov    (%rax),%rsi
  404582:	48 8b 45 b8          	mov    -0x48(%rbp),%rax
  404586:	48 8b 00             	mov    (%rax),%rax
  404589:	48 8b 55 e8          	mov    -0x18(%rbp),%rdx
  40458d:	48 89 d9             	mov    %rbx,%rcx
  404590:	48 89 c7             	mov    %rax,%rdi
  404593:	e8 32 04 00 00       	callq  4049ca <_ZSt34__uninitialized_move_if_noexcept_aIP8SaveInfoS1_SaIS0_EET0_T_S4_S3_RT1_>
  404598:	48 89 45 d0          	mov    %rax,-0x30(%rbp)
  40459c:	48 83 45 d0 08       	addq   $0x8,-0x30(%rbp)
  4045a1:	48 8b 45 b8          	mov    -0x48(%rbp),%rax
  4045a5:	48 89 c7             	mov    %rax,%rdi
  4045a8:	e8 0f 04 00 00       	callq  4049bc <_ZNSt12_Vector_baseI8SaveInfoSaIS0_EE19_M_get_Tp_allocatorEv>
  4045ad:	49 89 c4             	mov    %rax,%r12
  4045b0:	48 8b 45 b8          	mov    -0x48(%rbp),%rax
  4045b4:	48 8b 58 08          	mov    0x8(%rax),%rbx
  4045b8:	48 8d 45 b0          	lea    -0x50(%rbp),%rax
  4045bc:	48 89 c7             	mov    %rax,%rdi
  4045bf:	e8 28 02 00 00       	callq  4047ec <_ZNK9__gnu_cxx17__normal_iteratorIP8SaveInfoSt6vectorIS1_SaIS1_EEE4baseEv>
  4045c4:	48 8b 00             	mov    (%rax),%rax
  4045c7:	48 8b 55 d0          	mov    -0x30(%rbp),%rdx
  4045cb:	4c 89 e1             	mov    %r12,%rcx
  4045ce:	48 89 de             	mov    %rbx,%rsi
  4045d1:	48 89 c7             	mov    %rax,%rdi
  4045d4:	e8 f1 03 00 00       	callq  4049ca <_ZSt34__uninitialized_move_if_noexcept_aIP8SaveInfoS1_SaIS0_EET0_T_S4_S3_RT1_>
  4045d9:	48 89 45 d0          	mov    %rax,-0x30(%rbp)
  4045dd:	48 8b 45 b8          	mov    -0x48(%rbp),%rax
  4045e1:	48 89 c7             	mov    %rax,%rdi
  4045e4:	e8 d3 03 00 00       	callq  4049bc <_ZNSt12_Vector_baseI8SaveInfoSaIS0_EE19_M_get_Tp_allocatorEv>
  4045e9:	48 89 c2             	mov    %rax,%rdx
  4045ec:	48 8b 45 b8          	mov    -0x48(%rbp),%rax
  4045f0:	48 8b 48 08          	mov    0x8(%rax),%rcx
  4045f4:	48 8b 45 b8          	mov    -0x48(%rbp),%rax
  4045f8:	48 8b 00             	mov    (%rax),%rax
  4045fb:	48 89 ce             	mov    %rcx,%rsi
  4045fe:	48 89 c7             	mov    %rax,%rdi
  404601:	e8 1b 04 00 00       	callq  404a21 <_ZSt8_DestroyIP8SaveInfoS0_EvT_S2_RSaIT0_E>
  404606:	48 8b 45 b8          	mov    -0x48(%rbp),%rax
  40460a:	48 8b 40 10          	mov    0x10(%rax),%rax
  40460e:	48 89 c2             	mov    %rax,%rdx
  404611:	48 8b 45 b8          	mov    -0x48(%rbp),%rax
  404615:	48 8b 00             	mov    (%rax),%rax
  404618:	48 29 c2             	sub    %rax,%rdx
  40461b:	48 89 d0             	mov    %rdx,%rax
  40461e:	48 c1 f8 03          	sar    $0x3,%rax
  404622:	48 89 c2             	mov    %rax,%rdx
  404625:	48 8b 45 b8          	mov    -0x48(%rbp),%rax
  404629:	48 8b 08             	mov    (%rax),%rcx
  40462c:	48 8b 45 b8          	mov    -0x48(%rbp),%rax
  404630:	48 89 ce             	mov    %rcx,%rsi
  404633:	48 89 c7             	mov    %rax,%rdi
  404636:	e8 47 01 00 00       	callq  404782 <_ZNSt12_Vector_baseI8SaveInfoSaIS0_EE13_M_deallocateEPS0_m>
  40463b:	48 8b 45 b8          	mov    -0x48(%rbp),%rax
  40463f:	48 8b 55 e8          	mov    -0x18(%rbp),%rdx
  404643:	48 89 10             	mov    %rdx,(%rax)
  404646:	48 8b 45 b8          	mov    -0x48(%rbp),%rax
  40464a:	48 8b 55 d0          	mov    -0x30(%rbp),%rdx
  40464e:	48 89 50 08          	mov    %rdx,0x8(%rax)
  404652:	48 8b 45 d8          	mov    -0x28(%rbp),%rax
  404656:	48 8d 14 c5 00 00 00 	lea    0x0(,%rax,8),%rdx
  40465d:	00 
  40465e:	48 8b 45 e8          	mov    -0x18(%rbp),%rax
  404662:	48 01 c2             	add    %rax,%rdx
  404665:	48 8b 45 b8          	mov    -0x48(%rbp),%rax
  404669:	48 89 50 10          	mov    %rdx,0x10(%rax)
  40466d:	e9 84 00 00 00       	jmpq   4046f6 <_ZNSt6vectorI8SaveInfoSaIS0_EE13_M_insert_auxEN9__gnu_cxx17__normal_iteratorIPS0_S2_EERKS0_+0x2e0>
  404672:	48 89 c3             	mov    %rax,%rbx
  404675:	e8 66 cf ff ff       	callq  4015e0 <__cxa_end_catch@plt>
  40467a:	48 89 d8             	mov    %rbx,%rax
  40467d:	48 89 c7             	mov    %rax,%rdi
  404680:	e8 db cf ff ff       	callq  401660 <_Unwind_Resume@plt>
  404685:	48 89 c7             	mov    %rax,%rdi
  404688:	e8 83 cf ff ff       	callq  401610 <__cxa_begin_catch@plt>
  40468d:	48 83 7d d0 00       	cmpq   $0x0,-0x30(%rbp)
  404692:	75 24                	jne    4046b8 <_ZNSt6vectorI8SaveInfoSaIS0_EE13_M_insert_auxEN9__gnu_cxx17__normal_iteratorIPS0_S2_EERKS0_+0x2a2>
  404694:	48 8b 45 e0          	mov    -0x20(%rbp),%rax
  404698:	48 8d 14 c5 00 00 00 	lea    0x0(,%rax,8),%rdx
  40469f:	00 
  4046a0:	48 8b 45 e8          	mov    -0x18(%rbp),%rax
  4046a4:	48 01 c2             	add    %rax,%rdx
  4046a7:	48 8b 45 b8          	mov    -0x48(%rbp),%rax
  4046ab:	48 89 d6             	mov    %rdx,%rsi
  4046ae:	48 89 c7             	mov    %rax,%rdi
  4046b1:	e8 46 03 00 00       	callq  4049fc <_ZN9__gnu_cxx14__alloc_traitsISaI8SaveInfoEE7destroyERS2_PS1_>
  4046b6:	eb 22                	jmp    4046da <_ZNSt6vectorI8SaveInfoSaIS0_EE13_M_insert_auxEN9__gnu_cxx17__normal_iteratorIPS0_S2_EERKS0_+0x2c4>
  4046b8:	48 8b 45 b8          	mov    -0x48(%rbp),%rax
  4046bc:	48 89 c7             	mov    %rax,%rdi
  4046bf:	e8 f8 02 00 00       	callq  4049bc <_ZNSt12_Vector_baseI8SaveInfoSaIS0_EE19_M_get_Tp_allocatorEv>
  4046c4:	48 89 c2             	mov    %rax,%rdx
  4046c7:	48 8b 4d d0          	mov    -0x30(%rbp),%rcx
  4046cb:	48 8b 45 e8          	mov    -0x18(%rbp),%rax
  4046cf:	48 89 ce             	mov    %rcx,%rsi
  4046d2:	48 89 c7             	mov    %rax,%rdi
  4046d5:	e8 47 03 00 00       	callq  404a21 <_ZSt8_DestroyIP8SaveInfoS0_EvT_S2_RSaIT0_E>
  4046da:	48 8b 45 b8          	mov    -0x48(%rbp),%rax
  4046de:	48 8b 55 d8          	mov    -0x28(%rbp),%rdx
  4046e2:	48 8b 4d e8          	mov    -0x18(%rbp),%rcx
  4046e6:	48 89 ce             	mov    %rcx,%rsi
  4046e9:	48 89 c7             	mov    %rax,%rdi
  4046ec:	e8 91 00 00 00       	callq  404782 <_ZNSt12_Vector_baseI8SaveInfoSaIS0_EE13_M_deallocateEPS0_m>
  4046f1:	e8 1a cd ff ff       	callq  401410 <__cxa_rethrow@plt>
  4046f6:	48 83 c4 50          	add    $0x50,%rsp
  4046fa:	5b                   	pop    %rbx
  4046fb:	41 5c                	pop    %r12
  4046fd:	5d                   	pop    %rbp
  4046fe:	c3                   	retq   
  4046ff:	90                   	nop

0000000000404700 <_ZNSt6vectorI8SaveInfoSaIS0_EE3endEv>:
  404700:	55                   	push   %rbp
  404701:	48 89 e5             	mov    %rsp,%rbp
  404704:	48 83 ec 20          	sub    $0x20,%rsp
  404708:	48 89 7d e8          	mov    %rdi,-0x18(%rbp)
  40470c:	48 8b 45 e8          	mov    -0x18(%rbp),%rax
  404710:	48 8d 50 08          	lea    0x8(%rax),%rdx
  404714:	48 8d 45 f0          	lea    -0x10(%rbp),%rax
  404718:	48 89 d6             	mov    %rdx,%rsi
  40471b:	48 89 c7             	mov    %rax,%rdi
  40471e:	e8 27 03 00 00       	callq  404a4a <_ZN9__gnu_cxx17__normal_iteratorIP8SaveInfoSt6vectorIS1_SaIS1_EEEC1ERKS2_>
  404723:	48 8b 45 f0          	mov    -0x10(%rbp),%rax
  404727:	c9                   	leaveq 
  404728:	c3                   	retq   
  404729:	90                   	nop

000000000040472a <_ZNSt12_Vector_baseI8SaveInfoSaIS0_EE12_Vector_implC1Ev>:
  40472a:	55                   	push   %rbp
  40472b:	48 89 e5             	mov    %rsp,%rbp
  40472e:	48 83 ec 10          	sub    $0x10,%rsp
  404732:	48 89 7d f8          	mov    %rdi,-0x8(%rbp)
  404736:	48 8b 45 f8          	mov    -0x8(%rbp),%rax
  40473a:	48 89 c7             	mov    %rax,%rdi
  40473d:	e8 24 03 00 00       	callq  404a66 <_ZNSaI8SaveInfoEC1Ev>
  404742:	48 8b 45 f8          	mov    -0x8(%rbp),%rax
  404746:	48 c7 00 00 00 00 00 	movq   $0x0,(%rax)
  40474d:	48 8b 45 f8          	mov    -0x8(%rbp),%rax
  404751:	48 c7 40 08 00 00 00 	movq   $0x0,0x8(%rax)
  404758:	00 
  404759:	48 8b 45 f8          	mov    -0x8(%rbp),%rax
  40475d:	48 c7 40 10 00 00 00 	movq   $0x0,0x10(%rax)
  404764:	00 
  404765:	c9                   	leaveq 
  404766:	c3                   	retq   
  404767:	90                   	nop

0000000000404768 <_ZNSaI8SaveInfoED1Ev>:
  404768:	55                   	push   %rbp
  404769:	48 89 e5             	mov    %rsp,%rbp
  40476c:	48 83 ec 10          	sub    $0x10,%rsp
  404770:	48 89 7d f8          	mov    %rdi,-0x8(%rbp)
  404774:	48 8b 45 f8          	mov    -0x8(%rbp),%rax
  404778:	48 89 c7             	mov    %rax,%rdi
  40477b:	e8 00 03 00 00       	callq  404a80 <_ZN9__gnu_cxx13new_allocatorI8SaveInfoED1Ev>
  404780:	c9                   	leaveq 
  404781:	c3                   	retq   

0000000000404782 <_ZNSt12_Vector_baseI8SaveInfoSaIS0_EE13_M_deallocateEPS0_m>:
  404782:	55                   	push   %rbp
  404783:	48 89 e5             	mov    %rsp,%rbp
  404786:	48 83 ec 20          	sub    $0x20,%rsp
  40478a:	48 89 7d f8          	mov    %rdi,-0x8(%rbp)
  40478e:	48 89 75 f0          	mov    %rsi,-0x10(%rbp)
  404792:	48 89 55 e8          	mov    %rdx,-0x18(%rbp)
  404796:	48 83 7d f0 00       	cmpq   $0x0,-0x10(%rbp)
  40479b:	74 17                	je     4047b4 <_ZNSt12_Vector_baseI8SaveInfoSaIS0_EE13_M_deallocateEPS0_m+0x32>
  40479d:	48 8b 45 f8          	mov    -0x8(%rbp),%rax
  4047a1:	48 8b 55 e8          	mov    -0x18(%rbp),%rdx
  4047a5:	48 8b 4d f0          	mov    -0x10(%rbp),%rcx
  4047a9:	48 89 ce             	mov    %rcx,%rsi
  4047ac:	48 89 c7             	mov    %rax,%rdi
  4047af:	e8 d6 02 00 00       	callq  404a8a <_ZN9__gnu_cxx13new_allocatorI8SaveInfoE10deallocateEPS1_m>
  4047b4:	c9                   	leaveq 
  4047b5:	c3                   	retq   

00000000004047b6 <_ZN9__gnu_cxx13new_allocatorI8SaveInfoE9constructEPS1_RKS1_>:
  4047b6:	55                   	push   %rbp
  4047b7:	48 89 e5             	mov    %rsp,%rbp
  4047ba:	48 83 ec 20          	sub    $0x20,%rsp
  4047be:	48 89 7d f8          	mov    %rdi,-0x8(%rbp)
  4047c2:	48 89 75 f0          	mov    %rsi,-0x10(%rbp)
  4047c6:	48 89 55 e8          	mov    %rdx,-0x18(%rbp)
  4047ca:	48 8b 45 f0          	mov    -0x10(%rbp),%rax
  4047ce:	48 89 c6             	mov    %rax,%rsi
  4047d1:	bf 08 00 00 00       	mov    $0x8,%edi
  4047d6:	e8 8e f9 ff ff       	callq  404169 <_ZnwmPv>
  4047db:	48 85 c0             	test   %rax,%rax
  4047de:	74 0a                	je     4047ea <_ZN9__gnu_cxx13new_allocatorI8SaveInfoE9constructEPS1_RKS1_+0x34>
  4047e0:	48 8b 55 e8          	mov    -0x18(%rbp),%rdx
  4047e4:	48 8b 12             	mov    (%rdx),%rdx
  4047e7:	48 89 10             	mov    %rdx,(%rax)
  4047ea:	c9                   	leaveq 
  4047eb:	c3                   	retq   

00000000004047ec <_ZNK9__gnu_cxx17__normal_iteratorIP8SaveInfoSt6vectorIS1_SaIS1_EEE4baseEv>:
  4047ec:	55                   	push   %rbp
  4047ed:	48 89 e5             	mov    %rsp,%rbp
  4047f0:	48 89 7d f8          	mov    %rdi,-0x8(%rbp)
  4047f4:	48 8b 45 f8          	mov    -0x8(%rbp),%rax
  4047f8:	5d                   	pop    %rbp
  4047f9:	c3                   	retq   

00000000004047fa <_ZSt13copy_backwardIP8SaveInfoS1_ET0_T_S3_S2_>:
  4047fa:	55                   	push   %rbp
  4047fb:	48 89 e5             	mov    %rsp,%rbp
  4047fe:	53                   	push   %rbx
  4047ff:	48 83 ec 28          	sub    $0x28,%rsp
  404803:	48 89 7d e8          	mov    %rdi,-0x18(%rbp)
  404807:	48 89 75 e0          	mov    %rsi,-0x20(%rbp)
  40480b:	48 89 55 d8          	mov    %rdx,-0x28(%rbp)
  40480f:	48 8b 45 e0          	mov    -0x20(%rbp),%rax
  404813:	48 89 c7             	mov    %rax,%rdi
  404816:	e8 91 02 00 00       	callq  404aac <_ZSt12__miter_baseIP8SaveInfoENSt11_Miter_baseIT_E13iterator_typeES3_>
  40481b:	48 89 c3             	mov    %rax,%rbx
  40481e:	48 8b 45 e8          	mov    -0x18(%rbp),%rax
  404822:	48 89 c7             	mov    %rax,%rdi
  404825:	e8 82 02 00 00       	callq  404aac <_ZSt12__miter_baseIP8SaveInfoENSt11_Miter_baseIT_E13iterator_typeES3_>
  40482a:	48 8b 55 d8          	mov    -0x28(%rbp),%rdx
  40482e:	48 89 de             	mov    %rbx,%rsi
  404831:	48 89 c7             	mov    %rax,%rdi
  404834:	e8 8d 02 00 00       	callq  404ac6 <_ZSt23__copy_move_backward_a2ILb0EP8SaveInfoS1_ET1_T0_S3_S2_>
  404839:	48 83 c4 28          	add    $0x28,%rsp
  40483d:	5b                   	pop    %rbx
  40483e:	5d                   	pop    %rbp
  40483f:	c3                   	retq   

0000000000404840 <_ZNK9__gnu_cxx17__normal_iteratorIP8SaveInfoSt6vectorIS1_SaIS1_EEEdeEv>:
  404840:	55                   	push   %rbp
  404841:	48 89 e5             	mov    %rsp,%rbp
  404844:	48 89 7d f8          	mov    %rdi,-0x8(%rbp)
  404848:	48 8b 45 f8          	mov    -0x8(%rbp),%rax
  40484c:	48 8b 00             	mov    (%rax),%rax
  40484f:	5d                   	pop    %rbp
  404850:	c3                   	retq   
  404851:	90                   	nop

0000000000404852 <_ZNKSt6vectorI8SaveInfoSaIS0_EE12_M_check_lenEmPKc>:
  404852:	55                   	push   %rbp
  404853:	48 89 e5             	mov    %rsp,%rbp
  404856:	53                   	push   %rbx
  404857:	48 83 ec 38          	sub    $0x38,%rsp
  40485b:	48 89 7d d8          	mov    %rdi,-0x28(%rbp)
  40485f:	48 89 75 d0          	mov    %rsi,-0x30(%rbp)
  404863:	48 89 55 c8          	mov    %rdx,-0x38(%rbp)
  404867:	48 8b 45 d8          	mov    -0x28(%rbp),%rax
  40486b:	48 89 c7             	mov    %rax,%rdi
  40486e:	e8 ab 02 00 00       	callq  404b1e <_ZNKSt6vectorI8SaveInfoSaIS0_EE8max_sizeEv>
  404873:	48 89 c3             	mov    %rax,%rbx
  404876:	48 8b 45 d8          	mov    -0x28(%rbp),%rax
  40487a:	48 89 c7             	mov    %rax,%rdi
  40487d:	e8 8e f9 ff ff       	callq  404210 <_ZNKSt6vectorI8SaveInfoSaIS0_EE4sizeEv>
  404882:	48 29 c3             	sub    %rax,%rbx
  404885:	48 89 da             	mov    %rbx,%rdx
  404888:	48 8b 45 d0          	mov    -0x30(%rbp),%rax
  40488c:	48 39 c2             	cmp    %rax,%rdx
  40488f:	0f 92 c0             	setb   %al
  404892:	84 c0                	test   %al,%al
  404894:	74 0c                	je     4048a2 <_ZNKSt6vectorI8SaveInfoSaIS0_EE12_M_check_lenEmPKc+0x50>
  404896:	48 8b 45 c8          	mov    -0x38(%rbp),%rax
  40489a:	48 89 c7             	mov    %rax,%rdi
  40489d:	e8 ee ca ff ff       	callq  401390 <_ZSt20__throw_length_errorPKc@plt>
  4048a2:	48 8b 45 d8          	mov    -0x28(%rbp),%rax
  4048a6:	48 89 c7             	mov    %rax,%rdi
  4048a9:	e8 62 f9 ff ff       	callq  404210 <_ZNKSt6vectorI8SaveInfoSaIS0_EE4sizeEv>
  4048ae:	48 89 c3             	mov    %rax,%rbx
  4048b1:	48 8b 45 d8          	mov    -0x28(%rbp),%rax
  4048b5:	48 89 c7             	mov    %rax,%rdi
  4048b8:	e8 53 f9 ff ff       	callq  404210 <_ZNKSt6vectorI8SaveInfoSaIS0_EE4sizeEv>
  4048bd:	48 89 45 e0          	mov    %rax,-0x20(%rbp)
  4048c1:	48 8d 55 d0          	lea    -0x30(%rbp),%rdx
  4048c5:	48 8d 45 e0          	lea    -0x20(%rbp),%rax
  4048c9:	48 89 d6             	mov    %rdx,%rsi
  4048cc:	48 89 c7             	mov    %rax,%rdi
  4048cf:	e8 6c 02 00 00       	callq  404b40 <_ZSt3maxImERKT_S2_S2_>
  4048d4:	48 8b 00             	mov    (%rax),%rax
  4048d7:	48 01 d8             	add    %rbx,%rax
  4048da:	48 89 45 e8          	mov    %rax,-0x18(%rbp)
  4048de:	48 8b 45 d8          	mov    -0x28(%rbp),%rax
  4048e2:	48 89 c7             	mov    %rax,%rdi
  4048e5:	e8 26 f9 ff ff       	callq  404210 <_ZNKSt6vectorI8SaveInfoSaIS0_EE4sizeEv>
  4048ea:	48 3b 45 e8          	cmp    -0x18(%rbp),%rax
  4048ee:	77 12                	ja     404902 <_ZNKSt6vectorI8SaveInfoSaIS0_EE12_M_check_lenEmPKc+0xb0>
  4048f0:	48 8b 45 d8          	mov    -0x28(%rbp),%rax
  4048f4:	48 89 c7             	mov    %rax,%rdi
  4048f7:	e8 22 02 00 00       	callq  404b1e <_ZNKSt6vectorI8SaveInfoSaIS0_EE8max_sizeEv>
  4048fc:	48 3b 45 e8          	cmp    -0x18(%rbp),%rax
  404900:	73 0e                	jae    404910 <_ZNKSt6vectorI8SaveInfoSaIS0_EE12_M_check_lenEmPKc+0xbe>
  404902:	48 8b 45 d8          	mov    -0x28(%rbp),%rax
  404906:	48 89 c7             	mov    %rax,%rdi
  404909:	e8 10 02 00 00       	callq  404b1e <_ZNKSt6vectorI8SaveInfoSaIS0_EE8max_sizeEv>
  40490e:	eb 04                	jmp    404914 <_ZNKSt6vectorI8SaveInfoSaIS0_EE12_M_check_lenEmPKc+0xc2>
  404910:	48 8b 45 e8          	mov    -0x18(%rbp),%rax
  404914:	48 83 c4 38          	add    $0x38,%rsp
  404918:	5b                   	pop    %rbx
  404919:	5d                   	pop    %rbp
  40491a:	c3                   	retq   
  40491b:	90                   	nop

000000000040491c <_ZNSt6vectorI8SaveInfoSaIS0_EE5beginEv>:
  40491c:	55                   	push   %rbp
  40491d:	48 89 e5             	mov    %rsp,%rbp
  404920:	48 83 ec 20          	sub    $0x20,%rsp
  404924:	48 89 7d e8          	mov    %rdi,-0x18(%rbp)
  404928:	48 8b 55 e8          	mov    -0x18(%rbp),%rdx
  40492c:	48 8d 45 f0          	lea    -0x10(%rbp),%rax
  404930:	48 89 d6             	mov    %rdx,%rsi
  404933:	48 89 c7             	mov    %rax,%rdi
  404936:	e8 0f 01 00 00       	callq  404a4a <_ZN9__gnu_cxx17__normal_iteratorIP8SaveInfoSt6vectorIS1_SaIS1_EEEC1ERKS2_>
  40493b:	48 8b 45 f0          	mov    -0x10(%rbp),%rax
  40493f:	c9                   	leaveq 
  404940:	c3                   	retq   

0000000000404941 <_ZN9__gnu_cxxmiIP8SaveInfoSt6vectorIS1_SaIS1_EEEENS_17__normal_iteratorIT_T0_E15difference_typeERKS9_SC_>:
  404941:	55                   	push   %rbp
  404942:	48 89 e5             	mov    %rsp,%rbp
  404945:	53                   	push   %rbx
  404946:	48 83 ec 18          	sub    $0x18,%rsp
  40494a:	48 89 7d e8          	mov    %rdi,-0x18(%rbp)
  40494e:	48 89 75 e0          	mov    %rsi,-0x20(%rbp)
  404952:	48 8b 45 e8          	mov    -0x18(%rbp),%rax
  404956:	48 89 c7             	mov    %rax,%rdi
  404959:	e8 8e fe ff ff       	callq  4047ec <_ZNK9__gnu_cxx17__normal_iteratorIP8SaveInfoSt6vectorIS1_SaIS1_EEE4baseEv>
  40495e:	48 8b 00             	mov    (%rax),%rax
  404961:	48 89 c3             	mov    %rax,%rbx
  404964:	48 8b 45 e0          	mov    -0x20(%rbp),%rax
  404968:	48 89 c7             	mov    %rax,%rdi
  40496b:	e8 7c fe ff ff       	callq  4047ec <_ZNK9__gnu_cxx17__normal_iteratorIP8SaveInfoSt6vectorIS1_SaIS1_EEE4baseEv>
  404970:	48 8b 00             	mov    (%rax),%rax
  404973:	48 29 c3             	sub    %rax,%rbx
  404976:	48 89 d8             	mov    %rbx,%rax
  404979:	48 c1 f8 03          	sar    $0x3,%rax
  40497d:	48 83 c4 18          	add    $0x18,%rsp
  404981:	5b                   	pop    %rbx
  404982:	5d                   	pop    %rbp
  404983:	c3                   	retq   

0000000000404984 <_ZNSt12_Vector_baseI8SaveInfoSaIS0_EE11_M_allocateEm>:
  404984:	55                   	push   %rbp
  404985:	48 89 e5             	mov    %rsp,%rbp
  404988:	48 83 ec 10          	sub    $0x10,%rsp
  40498c:	48 89 7d f8          	mov    %rdi,-0x8(%rbp)
  404990:	48 89 75 f0          	mov    %rsi,-0x10(%rbp)
  404994:	48 83 7d f0 00       	cmpq   $0x0,-0x10(%rbp)
  404999:	74 1a                	je     4049b5 <_ZNSt12_Vector_baseI8SaveInfoSaIS0_EE11_M_allocateEm+0x31>
  40499b:	48 8b 45 f8          	mov    -0x8(%rbp),%rax
  40499f:	48 8b 4d f0          	mov    -0x10(%rbp),%rcx
  4049a3:	ba 00 00 00 00       	mov    $0x0,%edx
  4049a8:	48 89 ce             	mov    %rcx,%rsi
  4049ab:	48 89 c7             	mov    %rax,%rdi
  4049ae:	e8 b9 01 00 00       	callq  404b6c <_ZN9__gnu_cxx13new_allocatorI8SaveInfoE8allocateEmPKv>
  4049b3:	eb 05                	jmp    4049ba <_ZNSt12_Vector_baseI8SaveInfoSaIS0_EE11_M_allocateEm+0x36>
  4049b5:	b8 00 00 00 00       	mov    $0x0,%eax
  4049ba:	c9                   	leaveq 
  4049bb:	c3                   	retq   

00000000004049bc <_ZNSt12_Vector_baseI8SaveInfoSaIS0_EE19_M_get_Tp_allocatorEv>:
  4049bc:	55                   	push   %rbp
  4049bd:	48 89 e5             	mov    %rsp,%rbp
  4049c0:	48 89 7d f8          	mov    %rdi,-0x8(%rbp)
  4049c4:	48 8b 45 f8          	mov    -0x8(%rbp),%rax
  4049c8:	5d                   	pop    %rbp
  4049c9:	c3                   	retq   

00000000004049ca <_ZSt34__uninitialized_move_if_noexcept_aIP8SaveInfoS1_SaIS0_EET0_T_S4_S3_RT1_>:
  4049ca:	55                   	push   %rbp
  4049cb:	48 89 e5             	mov    %rsp,%rbp
  4049ce:	48 83 ec 20          	sub    $0x20,%rsp
  4049d2:	48 89 7d f8          	mov    %rdi,-0x8(%rbp)
  4049d6:	48 89 75 f0          	mov    %rsi,-0x10(%rbp)
  4049da:	48 89 55 e8          	mov    %rdx,-0x18(%rbp)
  4049de:	48 89 4d e0          	mov    %rcx,-0x20(%rbp)
  4049e2:	48 8b 4d e0          	mov    -0x20(%rbp),%rcx
  4049e6:	48 8b 55 e8          	mov    -0x18(%rbp),%rdx
  4049ea:	48 8b 75 f0          	mov    -0x10(%rbp),%rsi
  4049ee:	48 8b 45 f8          	mov    -0x8(%rbp),%rax
  4049f2:	48 89 c7             	mov    %rax,%rdi
  4049f5:	e8 b4 01 00 00       	callq  404bae <_ZSt22__uninitialized_copy_aIP8SaveInfoS1_S0_ET0_T_S3_S2_RSaIT1_E>
  4049fa:	c9                   	leaveq 
  4049fb:	c3                   	retq   

00000000004049fc <_ZN9__gnu_cxx14__alloc_traitsISaI8SaveInfoEE7destroyERS2_PS1_>:
  4049fc:	55                   	push   %rbp
  4049fd:	48 89 e5             	mov    %rsp,%rbp
  404a00:	48 83 ec 10          	sub    $0x10,%rsp
  404a04:	48 89 7d f8          	mov    %rdi,-0x8(%rbp)
  404a08:	48 89 75 f0          	mov    %rsi,-0x10(%rbp)
  404a0c:	48 8b 55 f0          	mov    -0x10(%rbp),%rdx
  404a10:	48 8b 45 f8          	mov    -0x8(%rbp),%rax
  404a14:	48 89 d6             	mov    %rdx,%rsi
  404a17:	48 89 c7             	mov    %rax,%rdi
  404a1a:	e8 c1 01 00 00       	callq  404be0 <_ZN9__gnu_cxx13new_allocatorI8SaveInfoE7destroyEPS1_>
  404a1f:	c9                   	leaveq 
  404a20:	c3                   	retq   

0000000000404a21 <_ZSt8_DestroyIP8SaveInfoS0_EvT_S2_RSaIT0_E>:
  404a21:	55                   	push   %rbp
  404a22:	48 89 e5             	mov    %rsp,%rbp
  404a25:	48 83 ec 20          	sub    $0x20,%rsp
  404a29:	48 89 7d f8          	mov    %rdi,-0x8(%rbp)
  404a2d:	48 89 75 f0          	mov    %rsi,-0x10(%rbp)
  404a31:	48 89 55 e8          	mov    %rdx,-0x18(%rbp)
  404a35:	48 8b 55 f0          	mov    -0x10(%rbp),%rdx
  404a39:	48 8b 45 f8          	mov    -0x8(%rbp),%rax
  404a3d:	48 89 d6             	mov    %rdx,%rsi
  404a40:	48 89 c7             	mov    %rax,%rdi
  404a43:	e8 a6 01 00 00       	callq  404bee <_ZSt8_DestroyIP8SaveInfoEvT_S2_>
  404a48:	c9                   	leaveq 
  404a49:	c3                   	retq   

0000000000404a4a <_ZN9__gnu_cxx17__normal_iteratorIP8SaveInfoSt6vectorIS1_SaIS1_EEEC1ERKS2_>:
  404a4a:	55                   	push   %rbp
  404a4b:	48 89 e5             	mov    %rsp,%rbp
  404a4e:	48 89 7d f8          	mov    %rdi,-0x8(%rbp)
  404a52:	48 89 75 f0          	mov    %rsi,-0x10(%rbp)
  404a56:	48 8b 45 f0          	mov    -0x10(%rbp),%rax
  404a5a:	48 8b 10             	mov    (%rax),%rdx
  404a5d:	48 8b 45 f8          	mov    -0x8(%rbp),%rax
  404a61:	48 89 10             	mov    %rdx,(%rax)
  404a64:	5d                   	pop    %rbp
  404a65:	c3                   	retq   

0000000000404a66 <_ZNSaI8SaveInfoEC1Ev>:
  404a66:	55                   	push   %rbp
  404a67:	48 89 e5             	mov    %rsp,%rbp
  404a6a:	48 83 ec 10          	sub    $0x10,%rsp
  404a6e:	48 89 7d f8          	mov    %rdi,-0x8(%rbp)
  404a72:	48 8b 45 f8          	mov    -0x8(%rbp),%rax
  404a76:	48 89 c7             	mov    %rax,%rdi
  404a79:	e8 96 01 00 00       	callq  404c14 <_ZN9__gnu_cxx13new_allocatorI8SaveInfoEC1Ev>
  404a7e:	c9                   	leaveq 
  404a7f:	c3                   	retq   

0000000000404a80 <_ZN9__gnu_cxx13new_allocatorI8SaveInfoED1Ev>:
  404a80:	55                   	push   %rbp
  404a81:	48 89 e5             	mov    %rsp,%rbp
  404a84:	48 89 7d f8          	mov    %rdi,-0x8(%rbp)
  404a88:	5d                   	pop    %rbp
  404a89:	c3                   	retq   

0000000000404a8a <_ZN9__gnu_cxx13new_allocatorI8SaveInfoE10deallocateEPS1_m>:
  404a8a:	55                   	push   %rbp
  404a8b:	48 89 e5             	mov    %rsp,%rbp
  404a8e:	48 83 ec 20          	sub    $0x20,%rsp
  404a92:	48 89 7d f8          	mov    %rdi,-0x8(%rbp)
  404a96:	48 89 75 f0          	mov    %rsi,-0x10(%rbp)
  404a9a:	48 89 55 e8          	mov    %rdx,-0x18(%rbp)
  404a9e:	48 8b 45 f0          	mov    -0x10(%rbp),%rax
  404aa2:	48 89 c7             	mov    %rax,%rdi
  404aa5:	e8 56 c9 ff ff       	callq  401400 <_ZdlPv@plt>
  404aaa:	c9                   	leaveq 
  404aab:	c3                   	retq   

0000000000404aac <_ZSt12__miter_baseIP8SaveInfoENSt11_Miter_baseIT_E13iterator_typeES3_>:
  404aac:	55                   	push   %rbp
  404aad:	48 89 e5             	mov    %rsp,%rbp
  404ab0:	48 83 ec 10          	sub    $0x10,%rsp
  404ab4:	48 89 7d f8          	mov    %rdi,-0x8(%rbp)
  404ab8:	48 8b 45 f8          	mov    -0x8(%rbp),%rax
  404abc:	48 89 c7             	mov    %rax,%rdi
  404abf:	e8 5a 01 00 00       	callq  404c1e <_ZNSt10_Iter_baseIP8SaveInfoLb0EE7_S_baseES1_>
  404ac4:	c9                   	leaveq 
  404ac5:	c3                   	retq   

0000000000404ac6 <_ZSt23__copy_move_backward_a2ILb0EP8SaveInfoS1_ET1_T0_S3_S2_>:
  404ac6:	55                   	push   %rbp
  404ac7:	48 89 e5             	mov    %rsp,%rbp
  404aca:	41 54                	push   %r12
  404acc:	53                   	push   %rbx
  404acd:	48 83 ec 20          	sub    $0x20,%rsp
  404ad1:	48 89 7d e8          	mov    %rdi,-0x18(%rbp)
  404ad5:	48 89 75 e0          	mov    %rsi,-0x20(%rbp)
  404ad9:	48 89 55 d8          	mov    %rdx,-0x28(%rbp)
  404add:	48 8b 45 d8          	mov    -0x28(%rbp),%rax
  404ae1:	48 89 c7             	mov    %rax,%rdi
  404ae4:	e8 43 01 00 00       	callq  404c2c <_ZSt12__niter_baseIP8SaveInfoENSt11_Niter_baseIT_E13iterator_typeES3_>
  404ae9:	49 89 c4             	mov    %rax,%r12
  404aec:	48 8b 45 e0          	mov    -0x20(%rbp),%rax
  404af0:	48 89 c7             	mov    %rax,%rdi
  404af3:	e8 34 01 00 00       	callq  404c2c <_ZSt12__niter_baseIP8SaveInfoENSt11_Niter_baseIT_E13iterator_typeES3_>
  404af8:	48 89 c3             	mov    %rax,%rbx
  404afb:	48 8b 45 e8          	mov    -0x18(%rbp),%rax
  404aff:	48 89 c7             	mov    %rax,%rdi
  404b02:	e8 25 01 00 00       	callq  404c2c <_ZSt12__niter_baseIP8SaveInfoENSt11_Niter_baseIT_E13iterator_typeES3_>
  404b07:	4c 89 e2             	mov    %r12,%rdx
  404b0a:	48 89 de             	mov    %rbx,%rsi
  404b0d:	48 89 c7             	mov    %rax,%rdi
  404b10:	e8 31 01 00 00       	callq  404c46 <_ZSt22__copy_move_backward_aILb0EP8SaveInfoS1_ET1_T0_S3_S2_>
  404b15:	48 83 c4 20          	add    $0x20,%rsp
  404b19:	5b                   	pop    %rbx
  404b1a:	41 5c                	pop    %r12
  404b1c:	5d                   	pop    %rbp
  404b1d:	c3                   	retq   

0000000000404b1e <_ZNKSt6vectorI8SaveInfoSaIS0_EE8max_sizeEv>:
  404b1e:	55                   	push   %rbp
  404b1f:	48 89 e5             	mov    %rsp,%rbp
  404b22:	48 83 ec 10          	sub    $0x10,%rsp
  404b26:	48 89 7d f8          	mov    %rdi,-0x8(%rbp)
  404b2a:	48 8b 45 f8          	mov    -0x8(%rbp),%rax
  404b2e:	48 89 c7             	mov    %rax,%rdi
  404b31:	e8 5c 01 00 00       	callq  404c92 <_ZNKSt12_Vector_baseI8SaveInfoSaIS0_EE19_M_get_Tp_allocatorEv>
  404b36:	48 89 c7             	mov    %rax,%rdi
  404b39:	e8 39 01 00 00       	callq  404c77 <_ZN9__gnu_cxx14__alloc_traitsISaI8SaveInfoEE8max_sizeERKS2_>
  404b3e:	c9                   	leaveq 
  404b3f:	c3                   	retq   

0000000000404b40 <_ZSt3maxImERKT_S2_S2_>:
  404b40:	55                   	push   %rbp
  404b41:	48 89 e5             	mov    %rsp,%rbp
  404b44:	48 89 7d f8          	mov    %rdi,-0x8(%rbp)
  404b48:	48 89 75 f0          	mov    %rsi,-0x10(%rbp)
  404b4c:	48 8b 45 f8          	mov    -0x8(%rbp),%rax
  404b50:	48 8b 10             	mov    (%rax),%rdx
  404b53:	48 8b 45 f0          	mov    -0x10(%rbp),%rax
  404b57:	48 8b 00             	mov    (%rax),%rax
  404b5a:	48 39 c2             	cmp    %rax,%rdx
  404b5d:	73 06                	jae    404b65 <_ZSt3maxImERKT_S2_S2_+0x25>
  404b5f:	48 8b 45 f0          	mov    -0x10(%rbp),%rax
  404b63:	eb 04                	jmp    404b69 <_ZSt3maxImERKT_S2_S2_+0x29>
  404b65:	48 8b 45 f8          	mov    -0x8(%rbp),%rax
  404b69:	5d                   	pop    %rbp
  404b6a:	c3                   	retq   
  404b6b:	90                   	nop

0000000000404b6c <_ZN9__gnu_cxx13new_allocatorI8SaveInfoE8allocateEmPKv>:
  404b6c:	55                   	push   %rbp
  404b6d:	48 89 e5             	mov    %rsp,%rbp
  404b70:	48 83 ec 20          	sub    $0x20,%rsp
  404b74:	48 89 7d f8          	mov    %rdi,-0x8(%rbp)
  404b78:	48 89 75 f0          	mov    %rsi,-0x10(%rbp)
  404b7c:	48 89 55 e8          	mov    %rdx,-0x18(%rbp)
  404b80:	48 8b 45 f8          	mov    -0x8(%rbp),%rax
  404b84:	48 89 c7             	mov    %rax,%rdi
  404b87:	e8 14 01 00 00       	callq  404ca0 <_ZNK9__gnu_cxx13new_allocatorI8SaveInfoE8max_sizeEv>
  404b8c:	48 3b 45 f0          	cmp    -0x10(%rbp),%rax
  404b90:	0f 92 c0             	setb   %al
  404b93:	84 c0                	test   %al,%al
  404b95:	74 05                	je     404b9c <_ZN9__gnu_cxx13new_allocatorI8SaveInfoE8allocateEmPKv+0x30>
  404b97:	e8 54 ca ff ff       	callq  4015f0 <_ZSt17__throw_bad_allocv@plt>
  404b9c:	48 8b 45 f0          	mov    -0x10(%rbp),%rax
  404ba0:	48 c1 e0 03          	shl    $0x3,%rax
  404ba4:	48 89 c7             	mov    %rax,%rdi
  404ba7:	e8 a4 ca ff ff       	callq  401650 <_Znwm@plt>
  404bac:	c9                   	leaveq 
  404bad:	c3                   	retq   

0000000000404bae <_ZSt22__uninitialized_copy_aIP8SaveInfoS1_S0_ET0_T_S3_S2_RSaIT1_E>:
  404bae:	55                   	push   %rbp
  404baf:	48 89 e5             	mov    %rsp,%rbp
  404bb2:	48 83 ec 20          	sub    $0x20,%rsp
  404bb6:	48 89 7d f8          	mov    %rdi,-0x8(%rbp)
  404bba:	48 89 75 f0          	mov    %rsi,-0x10(%rbp)
  404bbe:	48 89 55 e8          	mov    %rdx,-0x18(%rbp)
  404bc2:	48 89 4d e0          	mov    %rcx,-0x20(%rbp)
  404bc6:	48 8b 55 e8          	mov    -0x18(%rbp),%rdx
  404bca:	48 8b 4d f0          	mov    -0x10(%rbp),%rcx
  404bce:	48 8b 45 f8          	mov    -0x8(%rbp),%rax
  404bd2:	48 89 ce             	mov    %rcx,%rsi
  404bd5:	48 89 c7             	mov    %rax,%rdi
  404bd8:	e8 d7 00 00 00       	callq  404cb4 <_ZSt18uninitialized_copyIP8SaveInfoS1_ET0_T_S3_S2_>
  404bdd:	c9                   	leaveq 
  404bde:	c3                   	retq   
  404bdf:	90                   	nop

0000000000404be0 <_ZN9__gnu_cxx13new_allocatorI8SaveInfoE7destroyEPS1_>:
  404be0:	55                   	push   %rbp
  404be1:	48 89 e5             	mov    %rsp,%rbp
  404be4:	48 89 7d f8          	mov    %rdi,-0x8(%rbp)
  404be8:	48 89 75 f0          	mov    %rsi,-0x10(%rbp)
  404bec:	5d                   	pop    %rbp
  404bed:	c3                   	retq   

0000000000404bee <_ZSt8_DestroyIP8SaveInfoEvT_S2_>:
  404bee:	55                   	push   %rbp
  404bef:	48 89 e5             	mov    %rsp,%rbp
  404bf2:	48 83 ec 10          	sub    $0x10,%rsp
  404bf6:	48 89 7d f8          	mov    %rdi,-0x8(%rbp)
  404bfa:	48 89 75 f0          	mov    %rsi,-0x10(%rbp)
  404bfe:	48 8b 55 f0          	mov    -0x10(%rbp),%rdx
  404c02:	48 8b 45 f8          	mov    -0x8(%rbp),%rax
  404c06:	48 89 d6             	mov    %rdx,%rsi
  404c09:	48 89 c7             	mov    %rax,%rdi
  404c0c:	e8 d0 00 00 00       	callq  404ce1 <_ZNSt12_Destroy_auxILb1EE9__destroyIP8SaveInfoEEvT_S4_>
  404c11:	c9                   	leaveq 
  404c12:	c3                   	retq   
  404c13:	90                   	nop

0000000000404c14 <_ZN9__gnu_cxx13new_allocatorI8SaveInfoEC1Ev>:
  404c14:	55                   	push   %rbp
  404c15:	48 89 e5             	mov    %rsp,%rbp
  404c18:	48 89 7d f8          	mov    %rdi,-0x8(%rbp)
  404c1c:	5d                   	pop    %rbp
  404c1d:	c3                   	retq   

0000000000404c1e <_ZNSt10_Iter_baseIP8SaveInfoLb0EE7_S_baseES1_>:
  404c1e:	55                   	push   %rbp
  404c1f:	48 89 e5             	mov    %rsp,%rbp
  404c22:	48 89 7d f8          	mov    %rdi,-0x8(%rbp)
  404c26:	48 8b 45 f8          	mov    -0x8(%rbp),%rax
  404c2a:	5d                   	pop    %rbp
  404c2b:	c3                   	retq   

0000000000404c2c <_ZSt12__niter_baseIP8SaveInfoENSt11_Niter_baseIT_E13iterator_typeES3_>:
  404c2c:	55                   	push   %rbp
  404c2d:	48 89 e5             	mov    %rsp,%rbp
  404c30:	48 83 ec 10          	sub    $0x10,%rsp
  404c34:	48 89 7d f8          	mov    %rdi,-0x8(%rbp)
  404c38:	48 8b 45 f8          	mov    -0x8(%rbp),%rax
  404c3c:	48 89 c7             	mov    %rax,%rdi
  404c3f:	e8 da ff ff ff       	callq  404c1e <_ZNSt10_Iter_baseIP8SaveInfoLb0EE7_S_baseES1_>
  404c44:	c9                   	leaveq 
  404c45:	c3                   	retq   

0000000000404c46 <_ZSt22__copy_move_backward_aILb0EP8SaveInfoS1_ET1_T0_S3_S2_>:
  404c46:	55                   	push   %rbp
  404c47:	48 89 e5             	mov    %rsp,%rbp
  404c4a:	48 83 ec 30          	sub    $0x30,%rsp
  404c4e:	48 89 7d e8          	mov    %rdi,-0x18(%rbp)
  404c52:	48 89 75 e0          	mov    %rsi,-0x20(%rbp)
  404c56:	48 89 55 d8          	mov    %rdx,-0x28(%rbp)
  404c5a:	c6 45 ff 01          	movb   $0x1,-0x1(%rbp)
  404c5e:	48 8b 55 d8          	mov    -0x28(%rbp),%rdx
  404c62:	48 8b 4d e0          	mov    -0x20(%rbp),%rcx
  404c66:	48 8b 45 e8          	mov    -0x18(%rbp),%rax
  404c6a:	48 89 ce             	mov    %rcx,%rsi
  404c6d:	48 89 c7             	mov    %rax,%rdi
  404c70:	e8 7a 00 00 00       	callq  404cef <_ZNSt20__copy_move_backwardILb0ELb1ESt26random_access_iterator_tagE13__copy_move_bI8SaveInfoEEPT_PKS4_S7_S5_>
  404c75:	c9                   	leaveq 
  404c76:	c3                   	retq   

0000000000404c77 <_ZN9__gnu_cxx14__alloc_traitsISaI8SaveInfoEE8max_sizeERKS2_>:
  404c77:	55                   	push   %rbp
  404c78:	48 89 e5             	mov    %rsp,%rbp
  404c7b:	48 83 ec 10          	sub    $0x10,%rsp
  404c7f:	48 89 7d f8          	mov    %rdi,-0x8(%rbp)
  404c83:	48 8b 45 f8          	mov    -0x8(%rbp),%rax
  404c87:	48 89 c7             	mov    %rax,%rdi
  404c8a:	e8 11 00 00 00       	callq  404ca0 <_ZNK9__gnu_cxx13new_allocatorI8SaveInfoE8max_sizeEv>
  404c8f:	c9                   	leaveq 
  404c90:	c3                   	retq   
  404c91:	90                   	nop

0000000000404c92 <_ZNKSt12_Vector_baseI8SaveInfoSaIS0_EE19_M_get_Tp_allocatorEv>:
  404c92:	55                   	push   %rbp
  404c93:	48 89 e5             	mov    %rsp,%rbp
  404c96:	48 89 7d f8          	mov    %rdi,-0x8(%rbp)
  404c9a:	48 8b 45 f8          	mov    -0x8(%rbp),%rax
  404c9e:	5d                   	pop    %rbp
  404c9f:	c3                   	retq   

0000000000404ca0 <_ZNK9__gnu_cxx13new_allocatorI8SaveInfoE8max_sizeEv>:
  404ca0:	55                   	push   %rbp
  404ca1:	48 89 e5             	mov    %rsp,%rbp
  404ca4:	48 89 7d f8          	mov    %rdi,-0x8(%rbp)
  404ca8:	48 b8 ff ff ff ff ff 	movabs $0x1fffffffffffffff,%rax
  404caf:	ff ff 1f 
  404cb2:	5d                   	pop    %rbp
  404cb3:	c3                   	retq   

0000000000404cb4 <_ZSt18uninitialized_copyIP8SaveInfoS1_ET0_T_S3_S2_>:
  404cb4:	55                   	push   %rbp
  404cb5:	48 89 e5             	mov    %rsp,%rbp
  404cb8:	48 83 ec 20          	sub    $0x20,%rsp
  404cbc:	48 89 7d f8          	mov    %rdi,-0x8(%rbp)
  404cc0:	48 89 75 f0          	mov    %rsi,-0x10(%rbp)
  404cc4:	48 89 55 e8          	mov    %rdx,-0x18(%rbp)
  404cc8:	48 8b 55 e8          	mov    -0x18(%rbp),%rdx
  404ccc:	48 8b 4d f0          	mov    -0x10(%rbp),%rcx
  404cd0:	48 8b 45 f8          	mov    -0x8(%rbp),%rax
  404cd4:	48 89 ce             	mov    %rcx,%rsi
  404cd7:	48 89 c7             	mov    %rax,%rdi
  404cda:	e8 88 00 00 00       	callq  404d67 <_ZNSt20__uninitialized_copyILb1EE13__uninit_copyIP8SaveInfoS3_EET0_T_S5_S4_>
  404cdf:	c9                   	leaveq 
  404ce0:	c3                   	retq   

0000000000404ce1 <_ZNSt12_Destroy_auxILb1EE9__destroyIP8SaveInfoEEvT_S4_>:
  404ce1:	55                   	push   %rbp
  404ce2:	48 89 e5             	mov    %rsp,%rbp
  404ce5:	48 89 7d f8          	mov    %rdi,-0x8(%rbp)
  404ce9:	48 89 75 f0          	mov    %rsi,-0x10(%rbp)
  404ced:	5d                   	pop    %rbp
  404cee:	c3                   	retq   

0000000000404cef <_ZNSt20__copy_move_backwardILb0ELb1ESt26random_access_iterator_tagE13__copy_move_bI8SaveInfoEEPT_PKS4_S7_S5_>:
  404cef:	55                   	push   %rbp
  404cf0:	48 89 e5             	mov    %rsp,%rbp
  404cf3:	48 83 ec 30          	sub    $0x30,%rsp
  404cf7:	48 89 7d e8          	mov    %rdi,-0x18(%rbp)
  404cfb:	48 89 75 e0          	mov    %rsi,-0x20(%rbp)
  404cff:	48 89 55 d8          	mov    %rdx,-0x28(%rbp)
  404d03:	48 8b 55 e0          	mov    -0x20(%rbp),%rdx
  404d07:	48 8b 45 e8          	mov    -0x18(%rbp),%rax
  404d0b:	48 29 c2             	sub    %rax,%rdx
  404d0e:	48 89 d0             	mov    %rdx,%rax
  404d11:	48 c1 f8 03          	sar    $0x3,%rax
  404d15:	48 89 45 f8          	mov    %rax,-0x8(%rbp)
  404d19:	48 83 7d f8 00       	cmpq   $0x0,-0x8(%rbp)
  404d1e:	74 30                	je     404d50 <_ZNSt20__copy_move_backwardILb0ELb1ESt26random_access_iterator_tagE13__copy_move_bI8SaveInfoEEPT_PKS4_S7_S5_+0x61>
  404d20:	48 8b 45 f8          	mov    -0x8(%rbp),%rax
  404d24:	48 8d 14 c5 00 00 00 	lea    0x0(,%rax,8),%rdx
  404d2b:	00 
  404d2c:	48 8b 45 f8          	mov    -0x8(%rbp),%rax
  404d30:	48 c1 e0 03          	shl    $0x3,%rax
  404d34:	48 f7 d8             	neg    %rax
  404d37:	48 89 c1             	mov    %rax,%rcx
  404d3a:	48 8b 45 d8          	mov    -0x28(%rbp),%rax
  404d3e:	48 01 c1             	add    %rax,%rcx
  404d41:	48 8b 45 e8          	mov    -0x18(%rbp),%rax
  404d45:	48 89 c6             	mov    %rax,%rsi
  404d48:	48 89 cf             	mov    %rcx,%rdi
  404d4b:	e8 00 c8 ff ff       	callq  401550 <memmove@plt>
  404d50:	48 8b 45 f8          	mov    -0x8(%rbp),%rax
  404d54:	48 c1 e0 03          	shl    $0x3,%rax
  404d58:	48 f7 d8             	neg    %rax
  404d5b:	48 89 c2             	mov    %rax,%rdx
  404d5e:	48 8b 45 d8          	mov    -0x28(%rbp),%rax
  404d62:	48 01 d0             	add    %rdx,%rax
  404d65:	c9                   	leaveq 
  404d66:	c3                   	retq   

0000000000404d67 <_ZNSt20__uninitialized_copyILb1EE13__uninit_copyIP8SaveInfoS3_EET0_T_S5_S4_>:
  404d67:	55                   	push   %rbp
  404d68:	48 89 e5             	mov    %rsp,%rbp
  404d6b:	48 83 ec 20          	sub    $0x20,%rsp
  404d6f:	48 89 7d f8          	mov    %rdi,-0x8(%rbp)
  404d73:	48 89 75 f0          	mov    %rsi,-0x10(%rbp)
  404d77:	48 89 55 e8          	mov    %rdx,-0x18(%rbp)
  404d7b:	48 8b 55 e8          	mov    -0x18(%rbp),%rdx
  404d7f:	48 8b 4d f0          	mov    -0x10(%rbp),%rcx
  404d83:	48 8b 45 f8          	mov    -0x8(%rbp),%rax
  404d87:	48 89 ce             	mov    %rcx,%rsi
  404d8a:	48 89 c7             	mov    %rax,%rdi
  404d8d:	e8 02 00 00 00       	callq  404d94 <_ZSt4copyIP8SaveInfoS1_ET0_T_S3_S2_>
  404d92:	c9                   	leaveq 
  404d93:	c3                   	retq   

0000000000404d94 <_ZSt4copyIP8SaveInfoS1_ET0_T_S3_S2_>:
  404d94:	55                   	push   %rbp
  404d95:	48 89 e5             	mov    %rsp,%rbp
  404d98:	53                   	push   %rbx
  404d99:	48 83 ec 28          	sub    $0x28,%rsp
  404d9d:	48 89 7d e8          	mov    %rdi,-0x18(%rbp)
  404da1:	48 89 75 e0          	mov    %rsi,-0x20(%rbp)
  404da5:	48 89 55 d8          	mov    %rdx,-0x28(%rbp)
  404da9:	48 8b 45 e0          	mov    -0x20(%rbp),%rax
  404dad:	48 89 c7             	mov    %rax,%rdi
  404db0:	e8 f7 fc ff ff       	callq  404aac <_ZSt12__miter_baseIP8SaveInfoENSt11_Miter_baseIT_E13iterator_typeES3_>
  404db5:	48 89 c3             	mov    %rax,%rbx
  404db8:	48 8b 45 e8          	mov    -0x18(%rbp),%rax
  404dbc:	48 89 c7             	mov    %rax,%rdi
  404dbf:	e8 e8 fc ff ff       	callq  404aac <_ZSt12__miter_baseIP8SaveInfoENSt11_Miter_baseIT_E13iterator_typeES3_>
  404dc4:	48 8b 55 d8          	mov    -0x28(%rbp),%rdx
  404dc8:	48 89 de             	mov    %rbx,%rsi
  404dcb:	48 89 c7             	mov    %rax,%rdi
  404dce:	e8 07 00 00 00       	callq  404dda <_ZSt14__copy_move_a2ILb0EP8SaveInfoS1_ET1_T0_S3_S2_>
  404dd3:	48 83 c4 28          	add    $0x28,%rsp
  404dd7:	5b                   	pop    %rbx
  404dd8:	5d                   	pop    %rbp
  404dd9:	c3                   	retq   

0000000000404dda <_ZSt14__copy_move_a2ILb0EP8SaveInfoS1_ET1_T0_S3_S2_>:
  404dda:	55                   	push   %rbp
  404ddb:	48 89 e5             	mov    %rsp,%rbp
  404dde:	41 54                	push   %r12
  404de0:	53                   	push   %rbx
  404de1:	48 83 ec 20          	sub    $0x20,%rsp
  404de5:	48 89 7d e8          	mov    %rdi,-0x18(%rbp)
  404de9:	48 89 75 e0          	mov    %rsi,-0x20(%rbp)
  404ded:	48 89 55 d8          	mov    %rdx,-0x28(%rbp)
  404df1:	48 8b 45 d8          	mov    -0x28(%rbp),%rax
  404df5:	48 89 c7             	mov    %rax,%rdi
  404df8:	e8 2f fe ff ff       	callq  404c2c <_ZSt12__niter_baseIP8SaveInfoENSt11_Niter_baseIT_E13iterator_typeES3_>
  404dfd:	49 89 c4             	mov    %rax,%r12
  404e00:	48 8b 45 e0          	mov    -0x20(%rbp),%rax
  404e04:	48 89 c7             	mov    %rax,%rdi
  404e07:	e8 20 fe ff ff       	callq  404c2c <_ZSt12__niter_baseIP8SaveInfoENSt11_Niter_baseIT_E13iterator_typeES3_>
  404e0c:	48 89 c3             	mov    %rax,%rbx
  404e0f:	48 8b 45 e8          	mov    -0x18(%rbp),%rax
  404e13:	48 89 c7             	mov    %rax,%rdi
  404e16:	e8 11 fe ff ff       	callq  404c2c <_ZSt12__niter_baseIP8SaveInfoENSt11_Niter_baseIT_E13iterator_typeES3_>
  404e1b:	4c 89 e2             	mov    %r12,%rdx
  404e1e:	48 89 de             	mov    %rbx,%rsi
  404e21:	48 89 c7             	mov    %rax,%rdi
  404e24:	e8 09 00 00 00       	callq  404e32 <_ZSt13__copy_move_aILb0EP8SaveInfoS1_ET1_T0_S3_S2_>
  404e29:	48 83 c4 20          	add    $0x20,%rsp
  404e2d:	5b                   	pop    %rbx
  404e2e:	41 5c                	pop    %r12
  404e30:	5d                   	pop    %rbp
  404e31:	c3                   	retq   

0000000000404e32 <_ZSt13__copy_move_aILb0EP8SaveInfoS1_ET1_T0_S3_S2_>:
  404e32:	55                   	push   %rbp
  404e33:	48 89 e5             	mov    %rsp,%rbp
  404e36:	48 83 ec 30          	sub    $0x30,%rsp
  404e3a:	48 89 7d e8          	mov    %rdi,-0x18(%rbp)
  404e3e:	48 89 75 e0          	mov    %rsi,-0x20(%rbp)
  404e42:	48 89 55 d8          	mov    %rdx,-0x28(%rbp)
  404e46:	c6 45 ff 01          	movb   $0x1,-0x1(%rbp)
  404e4a:	48 8b 55 d8          	mov    -0x28(%rbp),%rdx
  404e4e:	48 8b 4d e0          	mov    -0x20(%rbp),%rcx
  404e52:	48 8b 45 e8          	mov    -0x18(%rbp),%rax
  404e56:	48 89 ce             	mov    %rcx,%rsi
  404e59:	48 89 c7             	mov    %rax,%rdi
  404e5c:	e8 02 00 00 00       	callq  404e63 <_ZNSt11__copy_moveILb0ELb1ESt26random_access_iterator_tagE8__copy_mI8SaveInfoEEPT_PKS4_S7_S5_>
  404e61:	c9                   	leaveq 
  404e62:	c3                   	retq   

0000000000404e63 <_ZNSt11__copy_moveILb0ELb1ESt26random_access_iterator_tagE8__copy_mI8SaveInfoEEPT_PKS4_S7_S5_>:
  404e63:	55                   	push   %rbp
  404e64:	48 89 e5             	mov    %rsp,%rbp
  404e67:	48 83 ec 30          	sub    $0x30,%rsp
  404e6b:	48 89 7d e8          	mov    %rdi,-0x18(%rbp)
  404e6f:	48 89 75 e0          	mov    %rsi,-0x20(%rbp)
  404e73:	48 89 55 d8          	mov    %rdx,-0x28(%rbp)
  404e77:	48 8b 55 e0          	mov    -0x20(%rbp),%rdx
  404e7b:	48 8b 45 e8          	mov    -0x18(%rbp),%rax
  404e7f:	48 29 c2             	sub    %rax,%rdx
  404e82:	48 89 d0             	mov    %rdx,%rax
  404e85:	48 c1 f8 03          	sar    $0x3,%rax
  404e89:	48 89 45 f8          	mov    %rax,-0x8(%rbp)
  404e8d:	48 83 7d f8 00       	cmpq   $0x0,-0x8(%rbp)
  404e92:	74 1f                	je     404eb3 <_ZNSt11__copy_moveILb0ELb1ESt26random_access_iterator_tagE8__copy_mI8SaveInfoEEPT_PKS4_S7_S5_+0x50>
  404e94:	48 8b 45 f8          	mov    -0x8(%rbp),%rax
  404e98:	48 8d 14 c5 00 00 00 	lea    0x0(,%rax,8),%rdx
  404e9f:	00 
  404ea0:	48 8b 4d e8          	mov    -0x18(%rbp),%rcx
  404ea4:	48 8b 45 d8          	mov    -0x28(%rbp),%rax
  404ea8:	48 89 ce             	mov    %rcx,%rsi
  404eab:	48 89 c7             	mov    %rax,%rdi
  404eae:	e8 9d c6 ff ff       	callq  401550 <memmove@plt>
  404eb3:	48 8b 45 f8          	mov    -0x8(%rbp),%rax
  404eb7:	48 8d 14 c5 00 00 00 	lea    0x0(,%rax,8),%rdx
  404ebe:	00 
  404ebf:	48 8b 45 d8          	mov    -0x28(%rbp),%rax
  404ec3:	48 01 d0             	add    %rdx,%rax
  404ec6:	c9                   	leaveq 
  404ec7:	c3                   	retq   

0000000000404ec8 <_ZNSt6vectorI8SaveInfoSaIS0_EED1Ev>:
  404ec8:	55                   	push   %rbp
  404ec9:	48 89 e5             	mov    %rsp,%rbp
  404ecc:	53                   	push   %rbx
  404ecd:	48 83 ec 18          	sub    $0x18,%rsp
  404ed1:	48 89 7d e8          	mov    %rdi,-0x18(%rbp)
  404ed5:	48 8b 45 e8          	mov    -0x18(%rbp),%rax
  404ed9:	48 89 c7             	mov    %rax,%rdi
  404edc:	e8 db fa ff ff       	callq  4049bc <_ZNSt12_Vector_baseI8SaveInfoSaIS0_EE19_M_get_Tp_allocatorEv>
  404ee1:	48 89 c2             	mov    %rax,%rdx
  404ee4:	48 8b 45 e8          	mov    -0x18(%rbp),%rax
  404ee8:	48 8b 48 08          	mov    0x8(%rax),%rcx
  404eec:	48 8b 45 e8          	mov    -0x18(%rbp),%rax
  404ef0:	48 8b 00             	mov    (%rax),%rax
  404ef3:	48 89 ce             	mov    %rcx,%rsi
  404ef6:	48 89 c7             	mov    %rax,%rdi
  404ef9:	e8 23 fb ff ff       	callq  404a21 <_ZSt8_DestroyIP8SaveInfoS0_EvT_S2_RSaIT0_E>
  404efe:	48 8b 45 e8          	mov    -0x18(%rbp),%rax
  404f02:	48 89 c7             	mov    %rax,%rdi
  404f05:	e8 6e f4 ff ff       	callq  404378 <_ZNSt12_Vector_baseI8SaveInfoSaIS0_EED1Ev>
  404f0a:	eb 1a                	jmp    404f26 <_ZNSt6vectorI8SaveInfoSaIS0_EED1Ev+0x5e>
  404f0c:	48 89 c3             	mov    %rax,%rbx
  404f0f:	48 8b 45 e8          	mov    -0x18(%rbp),%rax
  404f13:	48 89 c7             	mov    %rax,%rdi
  404f16:	e8 5d f4 ff ff       	callq  404378 <_ZNSt12_Vector_baseI8SaveInfoSaIS0_EED1Ev>
  404f1b:	48 89 d8             	mov    %rbx,%rax
  404f1e:	48 89 c7             	mov    %rax,%rdi
  404f21:	e8 3a c7 ff ff       	callq  401660 <_Unwind_Resume@plt>
  404f26:	48 83 c4 18          	add    $0x18,%rsp
  404f2a:	5b                   	pop    %rbx
  404f2b:	5d                   	pop    %rbp
  404f2c:	c3                   	retq   
  404f2d:	0f 1f 00             	nopl   (%rax)

0000000000404f30 <__libc_csu_init>:
  404f30:	41 57                	push   %r15
  404f32:	41 89 ff             	mov    %edi,%r15d
  404f35:	41 56                	push   %r14
  404f37:	49 89 f6             	mov    %rsi,%r14
  404f3a:	41 55                	push   %r13
  404f3c:	49 89 d5             	mov    %rdx,%r13
  404f3f:	41 54                	push   %r12
  404f41:	4c 8d 25 a0 1e 20 00 	lea    0x201ea0(%rip),%r12        # 606de8 <__frame_dummy_init_array_entry>
  404f48:	55                   	push   %rbp
  404f49:	48 8d 2d a8 1e 20 00 	lea    0x201ea8(%rip),%rbp        # 606df8 <__init_array_end>
  404f50:	53                   	push   %rbx
  404f51:	4c 29 e5             	sub    %r12,%rbp
  404f54:	31 db                	xor    %ebx,%ebx
  404f56:	48 c1 fd 03          	sar    $0x3,%rbp
  404f5a:	48 83 ec 08          	sub    $0x8,%rsp
  404f5e:	e8 f5 c3 ff ff       	callq  401358 <_init>
  404f63:	48 85 ed             	test   %rbp,%rbp
  404f66:	74 1e                	je     404f86 <__libc_csu_init+0x56>
  404f68:	0f 1f 84 00 00 00 00 	nopl   0x0(%rax,%rax,1)
  404f6f:	00 
  404f70:	4c 89 ea             	mov    %r13,%rdx
  404f73:	4c 89 f6             	mov    %r14,%rsi
  404f76:	44 89 ff             	mov    %r15d,%edi
  404f79:	41 ff 14 dc          	callq  *(%r12,%rbx,8)
  404f7d:	48 83 c3 01          	add    $0x1,%rbx
  404f81:	48 39 eb             	cmp    %rbp,%rbx
  404f84:	75 ea                	jne    404f70 <__libc_csu_init+0x40>
  404f86:	48 83 c4 08          	add    $0x8,%rsp
  404f8a:	5b                   	pop    %rbx
  404f8b:	5d                   	pop    %rbp
  404f8c:	41 5c                	pop    %r12
  404f8e:	41 5d                	pop    %r13
  404f90:	41 5e                	pop    %r14
  404f92:	41 5f                	pop    %r15
  404f94:	c3                   	retq   
  404f95:	66 66 2e 0f 1f 84 00 	data32 nopw %cs:0x0(%rax,%rax,1)
  404f9c:	00 00 00 00 

0000000000404fa0 <__libc_csu_fini>:
  404fa0:	f3 c3                	repz retq 

Disassembly of section .fini:

0000000000404fa4 <_fini>:
  404fa4:	48 83 ec 08          	sub    $0x8,%rsp
  404fa8:	48 83 c4 08          	add    $0x8,%rsp
  404fac:	c3                   	retq   
